Certificate:
    Data:
        Version: 3 (0x2)
        Serial Number: 12 (0xc)
        Signature Algorithm: sha1WithRSAEncryption
        Issuer: C=BA, ST=RS, O=Elektrotehnicki fakultet, OU=CA_ETFBL, CN=root ca/emailAddress=noreply@etfbl.net
        Validity
            Not Before: Feb 20 19:26:07 2021 GMT
            Not After : Feb 20 19:26:07 2022 GMT
        Subject: C=BA, ST=RS, O=Elektrotehnicki fakultet, OU=CA_ETFBL, CN=aleksa/emailAddress=aleksa.aleksic@etfbl.net, SN=Aleksic, GN=Aleksa
        Subject Public Key Info:
            Public Key Algorithm: rsaEncryption
                RSA Public-Key: (2048 bit)
                Modulus:
                    00:d4:d3:ac:d4:1a:23:8f:57:36:b7:50:17:40:a6:
                    00:c6:da:f3:f8:ae:cf:29:a1:a6:1f:eb:21:50:0f:
                    c2:51:f2:c8:af:19:bf:19:a1:05:60:1e:13:cb:f4:
                    61:4c:4c:f7:d6:88:ed:8d:0e:81:3e:49:62:e4:a2:
                    df:9e:87:1a:48:fb:bf:28:54:70:72:b0:86:3a:17:
                    1f:a0:02:29:0d:b1:78:b0:01:3b:69:12:04:cb:da:
                    c6:16:a3:93:d0:c4:aa:62:e2:8f:36:31:86:e5:f5:
                    59:45:45:70:fb:2d:59:d5:35:88:fc:dc:5c:14:cb:
                    af:ed:68:b3:97:62:9f:85:c1:6f:f7:73:df:d9:95:
                    e2:a0:7c:6d:99:51:db:2d:2c:ee:d2:a0:33:34:ed:
                    ba:71:c3:71:5d:0c:ba:77:d0:52:da:98:59:61:c8:
                    96:8f:11:4c:50:84:e4:1d:a9:ad:db:32:cf:53:f3:
                    e7:70:f3:23:2e:28:e2:2d:08:b7:9f:49:1a:86:d6:
                    e3:f9:26:74:99:42:b7:22:64:1c:e4:60:87:23:ed:
                    05:1b:37:fa:b3:47:d7:92:5a:3a:cd:52:28:54:d0:
                    04:0e:82:62:5d:a5:77:c7:f0:15:0d:0f:aa:d3:ae:
                    d0:7f:0e:0f:85:40:25:03:85:cc:5c:3c:c3:68:ff:
                    a4:15
                Exponent: 65537 (0x10001)
        X509v3 extensions:
            X509v3 Basic Constraints: 
                CA:FALSE
            X509v3 Key Usage: 
                Digital Signature, Key Encipherment
            Netscape Comment: 
                OpenSSL Generated Certificate
            X509v3 Subject Key Identifier: 
                EB:8C:CF:D8:BB:BF:6F:E4:E1:62:BF:FE:55:35:76:53:99:70:13:C0
            X509v3 Authority Key Identifier: 
                keyid:81:75:15:61:BD:14:5D:4D:97:E1:6C:03:0D:E5:AF:ED:3D:C8:00:04

            X509v3 CRL Distribution Points: 

                Full Name:
                  URI:http://192.168.21.89/rootcrl.pem

    Signature Algorithm: sha1WithRSAEncryption
         34:4c:53:a6:ca:ef:3c:56:c8:07:80:34:0e:14:71:5d:db:13:
         b7:a1:47:0c:83:fa:53:f1:ed:d5:30:2e:14:dd:59:e8:d3:ea:
         3a:38:5c:7d:a6:e7:bd:db:5b:3d:e4:f4:9d:de:0a:e2:98:6f:
         66:83:71:08:c0:e2:06:1d:dd:67:d9:3f:2f:6f:aa:16:b8:a2:
         f8:1a:5c:32:ab:5f:dc:1d:46:a2:30:36:fc:df:f4:8e:36:52:
         3a:59:57:cc:b8:aa:b1:3f:a7:2e:82:8c:ae:88:7b:b6:5d:2b:
         25:00:6d:8d:03:cc:d7:08:f1:55:f9:a7:34:7b:0e:a1:08:0b:
         60:56:38:72:f9:91:e6:7e:10:1f:ff:cb:3a:34:87:30:3c:2b:
         3b:c3:88:0f:44:07:ae:68:ce:c6:85:13:44:f8:6b:23:d3:e7:
         c1:e4:41:d7:9a:4c:7e:ee:a8:60:e8:9d:56:af:5f:df:4d:29:
         c2:3f:f6:de:f6:a2:e0:ff:69:64:c5:4e:2f:29:2c:d7:13:9a:
         33:69:44:46:d4:e6:ce:76:20:55:7d:db:f8:fb:a8:e3:69:cd:
         32:48:df:64:95:d3:1e:bb:0f:ca:eb:aa:76:78:8d:4d:78:4a:
         68:4e:4c:0c:05:f0:94:2d:f9:53:40:a9:d8:17:e3:6d:a1:96:
         78:5a:a8:51:de:4b:0f:57:ae:10:20:18:b5:0b:e4:98:d8:ff:
         49:8b:0d:da:ec:3e:5a:4e:94:a3:91:69:e0:0e:40:a4:da:55:
         bd:1d:64:3a:18:b3:70:c1:53:cc:36:0f:70:17:db:8e:f0:b2:
         6f:28:4c:6a:c6:1d:9d:69:18:70:83:f0:0f:41:9a:94:f2:54:
         99:0d:b7:af:14:3d:04:a7:2e:1f:77:e9:f4:9b:a3:d7:2f:47:
         8d:91:45:bd:54:c6:ae:46:5e:99:8f:c6:97:98:91:ac:1b:d0:
         60:4a:e1:55:f7:42:7d:9d:49:15:50:cf:cb:f4:16:2e:3f:bb:
         c0:18:47:7d:b6:5d:e8:3a:8a:32:ac:32:cc:16:bc:a7:17:1a:
         6c:cf:2b:34:21:3a:13:ef:b3:65:db:01:f2:1b:b2:ca:8a:b3:
         6a:7e:a7:68:df:0a:22:7d:d0:82:83:51:ed:8f:33:13:b0:8e:
         55:02:ba:01:09:bf:00:1b:e3:37:53:4b:67:7a:d0:bd:86:11:
         2e:1b:fc:bd:40:4f:ec:14:6f:ee:57:8b:ae:bf:35:c7:bc:8e:
         b9:17:50:eb:c0:88:6f:16:ac:4f:a3:7c:47:f5:a2:1f:e1:cf:
         01:2c:99:d2:61:9a:69:99:12:27:06:6f:d1:a9:71:65:29:f4:
         9d:2e:68:bc:2e:0c:0e:1c
-----BEGIN CERTIFICATE-----
MIIFazCCA1OgAwIBAgIBDDANBgkqhkiG9w0BAQUFADCBhDELMAkGA1UEBhMCQkEx
CzAJBgNVBAgTAlJTMSEwHwYDVQQKExhFbGVrdHJvdGVobmlja2kgZmFrdWx0ZXQx
ETAPBgNVBAsUCENBX0VURkJMMRAwDgYDVQQDEwdyb290IGNhMSAwHgYJKoZIhvcN
AQkBFhFub3JlcGx5QGV0ZmJsLm5ldDAeFw0yMTAyMjAxOTI2MDdaFw0yMjAyMjAx
OTI2MDdaMIGtMQswCQYDVQQGEwJCQTELMAkGA1UECBMCUlMxITAfBgNVBAoTGEVs
ZWt0cm90ZWhuaWNraSBmYWt1bHRldDERMA8GA1UECxQIQ0FfRVRGQkwxDzANBgNV
BAMTBmFsZWtzYTEnMCUGCSqGSIb3DQEJARYYYWxla3NhLmFsZWtzaWNAZXRmYmwu
bmV0MRAwDgYDVQQEEwdBbGVrc2ljMQ8wDQYDVQQqEwZBbGVrc2EwggEiMA0GCSqG
SIb3DQEBAQUAA4IBDwAwggEKAoIBAQDU06zUGiOPVza3UBdApgDG2vP4rs8poaYf
6yFQD8JR8sivGb8ZoQVgHhPL9GFMTPfWiO2NDoE+SWLkot+ehxpI+78oVHBysIY6
Fx+gAikNsXiwATtpEgTL2sYWo5PQxKpi4o82MYbl9VlFRXD7LVnVNYj83FwUy6/t
aLOXYp+FwW/3c9/ZleKgfG2ZUdstLO7SoDM07bpxw3FdDLp30FLamFlhyJaPEUxQ
hOQdqa3bMs9T8+dw8yMuKOItCLefSRqG1uP5JnSZQrciZBzkYIcj7QUbN/qzR9eS
WjrNUihU0AQOgmJdpXfH8BUND6rTrtB/Dg+FQCUDhcxcPMNo/6QVAgMBAAGjgbww
gbkwCQYDVR0TBAIwADALBgNVHQ8EBAMCBaAwLAYJYIZIAYb4QgENBB8WHU9wZW5T
U0wgR2VuZXJhdGVkIENlcnRpZmljYXRlMB0GA1UdDgQWBBTrjM/Yu79v5OFiv/5V
NXZTmXATwDAfBgNVHSMEGDAWgBSBdRVhvRRdTZfhbAMN5a/tPcgABDAxBgNVHR8E
KjAoMCagJKAihiBodHRwOi8vMTkyLjE2OC4yMS44OS9yb290Y3JsLnBlbTANBgkq
hkiG9w0BAQUFAAOCAgEANExTpsrvPFbIB4A0DhRxXdsTt6FHDIP6U/Ht1TAuFN1Z
6NPqOjhcfabnvdtbPeT0nd4K4phvZoNxCMDiBh3dZ9k/L2+qFrii+BpcMqtf3B1G
ojA2/N/0jjZSOllXzLiqsT+nLoKMroh7tl0rJQBtjQPM1wjxVfmnNHsOoQgLYFY4
cvmR5n4QH//LOjSHMDwrO8OID0QHrmjOxoUTRPhrI9PnweRB15pMfu6oYOidVq9f
300pwj/23vai4P9pZMVOLyks1xOaM2lERtTmznYgVX3b+Puo42nNMkjfZJXTHrsP
yuuqdniNTXhKaE5MDAXwlC35U0Cp2BfjbaGWeFqoUd5LD1euECAYtQvkmNj/SYsN
2uw+Wk6Uo5Fp4A5ApNpVvR1kOhizcMFTzDYPcBfbjvCybyhMasYdnWkYcIPwD0Ga
lPJUmQ23rxQ9BKcuH3fp9Juj1y9HjZFFvVTGrkZemY/Gl5iRrBvQYErhVfdCfZ1J
FVDPy/QWLj+7wBhHfbZd6DqKMqwyzBa8pxcabM8rNCE6E++zZdsB8huyyoqzan6n
aN8KIn3QgoNR7Y8zE7COVQK6AQm/ABvjN1NLZ3rQvYYRLhv8vUBP7BRv7leLrr81
x7yOuRdQ68CIbxasT6N8R/WiH+HPASyZ0mGaaZkSJwZv0alxZSn0nS5ovC4MDhw=
-----END CERTIFICATE-----
