Certificate:
    Data:
        Version: 3 (0x2)
        Serial Number: 13 (0xd)
        Signature Algorithm: sha1WithRSAEncryption
        Issuer: C=BA, ST=RS, O=Elektrotehnicki fakultet, OU=CA_ETFBL, CN=root ca/emailAddress=noreply@etfbl.net
        Validity
            Not Before: Feb 20 19:26:10 2021 GMT
            Not After : Feb 20 19:26:10 2022 GMT
        Subject: C=BA, ST=RS, O=Elektrotehnicki fakultet, OU=CA_ETFBL, CN=marko/emailAddress=marko.markovic@etfbl.net, SN=Markovic, GN=Marko
        Subject Public Key Info:
            Public Key Algorithm: rsaEncryption
                RSA Public-Key: (2048 bit)
                Modulus:
                    00:b8:34:38:12:3c:e2:75:16:ed:1b:3f:47:c9:6f:
                    16:4f:e0:df:e6:54:fa:e1:87:7d:b4:34:12:39:77:
                    73:f5:aa:b9:2b:0b:9e:6d:cc:17:1b:50:db:42:1e:
                    98:11:cd:4e:87:12:93:bb:0c:f7:32:58:c9:52:1f:
                    5f:ba:96:bc:76:d5:3e:1b:0a:f2:78:da:88:c4:41:
                    f5:92:dd:e7:69:d8:37:41:0a:4c:fc:f2:49:07:cf:
                    84:89:cd:1b:bb:e4:2f:bf:d7:94:ff:32:83:d9:ee:
                    39:e3:8f:41:e8:7a:b0:d6:e6:67:66:90:7b:7e:04:
                    e4:f5:bc:66:28:56:da:ac:77:30:1c:e7:99:5f:88:
                    be:ed:c1:c9:b4:55:70:12:ac:80:8b:09:0c:42:8f:
                    ef:2c:31:56:70:a4:7d:77:e6:a8:fc:bf:db:66:64:
                    4b:37:c8:34:41:c3:70:3c:77:bf:14:7f:9f:0e:5b:
                    aa:bf:01:32:d3:74:51:84:9d:74:8e:d7:f5:db:a8:
                    39:4a:8d:69:09:a1:0e:1a:33:89:bf:1a:84:d2:29:
                    3f:0c:54:72:f1:0f:18:23:96:fa:9e:0d:3b:13:77:
                    7f:ec:ab:e7:7e:82:69:bb:08:24:db:45:b8:87:c8:
                    e1:05:f1:b4:ca:e9:ef:37:e5:bf:18:98:89:50:ac:
                    0d:b5
                Exponent: 65537 (0x10001)
        X509v3 extensions:
            X509v3 Basic Constraints: 
                CA:FALSE
            X509v3 Key Usage: 
                Digital Signature, Key Encipherment
            Netscape Comment: 
                OpenSSL Generated Certificate
            X509v3 Subject Key Identifier: 
                ED:A9:C1:A2:20:67:2A:3B:32:CF:C6:39:C3:48:10:41:CD:33:90:5B
            X509v3 Authority Key Identifier: 
                keyid:81:75:15:61:BD:14:5D:4D:97:E1:6C:03:0D:E5:AF:ED:3D:C8:00:04

            X509v3 CRL Distribution Points: 

                Full Name:
                  URI:http://192.168.21.89/rootcrl.pem

    Signature Algorithm: sha1WithRSAEncryption
         8f:dc:4e:a6:df:e6:07:5e:af:22:a6:92:25:10:1c:36:16:e9:
         c7:4e:75:3d:1b:ee:0c:d5:61:62:e6:c7:ce:40:52:3f:54:c6:
         58:89:bb:cc:f7:3a:88:89:e7:27:bf:2e:b3:eb:07:29:af:91:
         86:af:85:bd:cb:91:50:5e:dc:c2:22:88:94:00:5e:1b:41:09:
         27:28:ce:d8:55:e4:08:eb:87:b3:79:3c:87:77:20:7f:41:0b:
         98:35:11:82:f2:ee:32:61:10:b2:0b:63:aa:86:ff:ec:9a:8f:
         c2:7e:88:1d:d3:d2:e0:53:00:eb:c3:7e:4e:c8:ba:05:28:9d:
         1f:55:64:24:39:89:a1:88:16:5a:57:b7:27:fe:ae:d8:8f:40:
         14:13:a8:35:c6:ee:3f:58:95:89:31:89:9f:95:37:3e:cd:16:
         c6:e3:6d:cd:52:f4:6b:9d:ad:59:4a:a5:e1:5e:aa:4b:bf:f2:
         9b:5a:74:71:cd:49:aa:ae:6b:04:25:2a:98:34:fe:1e:3c:0e:
         f0:aa:58:44:0e:55:0b:c1:4f:16:1c:a6:0c:48:33:cd:07:c7:
         4c:3d:23:e5:40:6c:6a:b6:b0:d8:3c:de:48:f6:36:1f:d2:16:
         b8:91:1b:5c:d2:58:5e:57:d7:04:72:50:6d:d3:7e:9e:bc:86:
         9a:1b:32:e9:7b:62:e0:cf:9a:55:dd:45:d9:c8:a5:9e:ef:c8:
         e0:b6:61:55:93:48:fd:a2:ce:a5:a8:2d:89:92:ca:e4:67:05:
         ef:bd:9a:c8:ea:f9:2b:c6:8a:42:39:71:9e:84:bd:46:96:68:
         fb:99:8f:29:e7:b4:26:71:82:e7:d8:b6:58:29:bc:90:68:bf:
         a9:29:09:d1:f7:b7:a8:30:bd:b6:2c:cc:e6:2c:3a:e9:40:74:
         43:83:26:28:33:9c:37:f7:65:a5:3f:f8:6f:51:53:d0:88:a9:
         87:f3:92:bf:0e:e2:6a:c5:ea:17:b9:67:9c:06:76:df:08:70:
         4e:fe:f8:8c:41:be:3b:07:06:86:75:f4:b9:cd:63:0e:cf:b0:
         14:32:c6:ec:79:92:13:b1:5c:ff:0f:82:2d:2b:33:dd:b8:4c:
         31:87:3b:98:f9:15:64:67:2c:ab:3c:d2:d4:eb:4d:3d:af:59:
         fd:5c:27:4d:59:a2:1c:5c:44:b1:2f:f3:49:ef:e7:55:36:99:
         ed:b0:81:dc:4c:1f:c4:ff:82:71:61:10:86:7e:c9:8c:d1:d1:
         fe:05:82:8b:6a:b0:0f:47:13:94:04:cc:9e:28:e0:11:4c:fe:
         3a:b2:f5:d0:cf:06:18:18:90:ef:c7:9d:97:f4:38:41:4f:3e:
         fc:84:ae:51:b8:9e:31:af
-----BEGIN CERTIFICATE-----
MIIFajCCA1KgAwIBAgIBDTANBgkqhkiG9w0BAQUFADCBhDELMAkGA1UEBhMCQkEx
CzAJBgNVBAgTAlJTMSEwHwYDVQQKExhFbGVrdHJvdGVobmlja2kgZmFrdWx0ZXQx
ETAPBgNVBAsUCENBX0VURkJMMRAwDgYDVQQDEwdyb290IGNhMSAwHgYJKoZIhvcN
AQkBFhFub3JlcGx5QGV0ZmJsLm5ldDAeFw0yMTAyMjAxOTI2MTBaFw0yMjAyMjAx
OTI2MTBaMIGsMQswCQYDVQQGEwJCQTELMAkGA1UECBMCUlMxITAfBgNVBAoTGEVs
ZWt0cm90ZWhuaWNraSBmYWt1bHRldDERMA8GA1UECxQIQ0FfRVRGQkwxDjAMBgNV
BAMTBW1hcmtvMScwJQYJKoZIhvcNAQkBFhhtYXJrby5tYXJrb3ZpY0BldGZibC5u
ZXQxETAPBgNVBAQTCE1hcmtvdmljMQ4wDAYDVQQqEwVNYXJrbzCCASIwDQYJKoZI
hvcNAQEBBQADggEPADCCAQoCggEBALg0OBI84nUW7Rs/R8lvFk/g3+ZU+uGHfbQ0
Ejl3c/WquSsLnm3MFxtQ20IemBHNTocSk7sM9zJYyVIfX7qWvHbVPhsK8njaiMRB
9ZLd52nYN0EKTPzySQfPhInNG7vkL7/XlP8yg9nuOeOPQeh6sNbmZ2aQe34E5PW8
ZihW2qx3MBznmV+Ivu3BybRVcBKsgIsJDEKP7ywxVnCkfXfmqPy/22ZkSzfINEHD
cDx3vxR/nw5bqr8BMtN0UYSddI7X9duoOUqNaQmhDhozib8ahNIpPwxUcvEPGCOW
+p4NOxN3f+yr536CabsIJNtFuIfI4QXxtMrp7zflvxiYiVCsDbUCAwEAAaOBvDCB
uTAJBgNVHRMEAjAAMAsGA1UdDwQEAwIFoDAsBglghkgBhvhCAQ0EHxYdT3BlblNT
TCBHZW5lcmF0ZWQgQ2VydGlmaWNhdGUwHQYDVR0OBBYEFO2pwaIgZyo7Ms/GOcNI
EEHNM5BbMB8GA1UdIwQYMBaAFIF1FWG9FF1Nl+FsAw3lr+09yAAEMDEGA1UdHwQq
MCgwJqAkoCKGIGh0dHA6Ly8xOTIuMTY4LjIxLjg5L3Jvb3RjcmwucGVtMA0GCSqG
SIb3DQEBBQUAA4ICAQCP3E6m3+YHXq8ippIlEBw2FunHTnU9G+4M1WFi5sfOQFI/
VMZYibvM9zqIiecnvy6z6wcpr5GGr4W9y5FQXtzCIoiUAF4bQQknKM7YVeQI64ez
eTyHdyB/QQuYNRGC8u4yYRCyC2Oqhv/smo/Cfogd09LgUwDrw35OyLoFKJ0fVWQk
OYmhiBZaV7cn/q7Yj0AUE6g1xu4/WJWJMYmflTc+zRbG423NUvRrna1ZSqXhXqpL
v/KbWnRxzUmqrmsEJSqYNP4ePA7wqlhEDlULwU8WHKYMSDPNB8dMPSPlQGxqtrDY
PN5I9jYf0ha4kRtc0lheV9cEclBt036evIaaGzLpe2Lgz5pV3UXZyKWe78jgtmFV
k0j9os6lqC2JksrkZwXvvZrI6vkrxopCOXGehL1Glmj7mY8p57QmcYLn2LZYKbyQ
aL+pKQnR97eoML22LMzmLDrpQHRDgyYoM5w392WlP/hvUVPQiKmH85K/DuJqxeoX
uWecBnbfCHBO/viMQb47BwaGdfS5zWMOz7AUMsbseZITsVz/D4ItKzPduEwxhzuY
+RVkZyyrPNLU6009r1n9XCdNWaIcXESxL/NJ7+dVNpntsIHcTB/E/4JxYRCGfsmM
0dH+BYKLarAPRxOUBMyeKOARTP46svXQzwYYGJDvx52X9DhBTz78hK5RuJ4xrw==
-----END CERTIFICATE-----
