Certificate:
    Data:
        Version: 3 (0x2)
        Serial Number: 14 (0xe)
        Signature Algorithm: sha1WithRSAEncryption
        Issuer: C=BA, ST=RS, O=Elektrotehnicki fakultet, OU=CA_ETFBL, CN=root ca/emailAddress=noreply@etfbl.net
        Validity
            Not Before: Feb 20 19:26:11 2021 GMT
            Not After : Feb 20 19:26:11 2022 GMT
        Subject: C=BA, ST=RS, O=Elektrotehnicki fakultet, OU=CA_ETFBL, CN=janko/emailAddress=janko.jankovic@etfbl.net, SN=Jankovic, GN=Janko
        Subject Public Key Info:
            Public Key Algorithm: rsaEncryption
                RSA Public-Key: (2048 bit)
                Modulus:
                    00:c7:e7:be:a7:90:f3:fd:57:2c:7f:5e:3e:9e:c8:
                    3e:0f:90:62:3f:05:98:ca:54:c2:77:75:f1:ed:d3:
                    29:c0:60:ac:bb:30:9c:d7:f4:1f:41:8d:07:c1:83:
                    6f:3e:59:34:8b:5f:e9:97:6a:4e:49:56:d6:0c:b4:
                    e7:33:f0:56:ea:c3:11:88:a2:08:99:b8:93:db:73:
                    a0:d1:fe:68:25:c6:07:f6:d7:db:d9:91:f7:33:04:
                    0c:fe:27:20:fa:68:b2:5a:51:37:ff:8d:3a:44:1c:
                    ae:f6:7d:4e:2a:3c:2d:93:26:a2:23:e1:57:c2:26:
                    2f:5a:2b:10:59:05:77:09:dd:7b:28:d6:08:40:bc:
                    4c:27:60:3f:54:f4:cf:78:56:ae:3f:86:99:35:26:
                    22:8e:2a:c8:d7:a2:bf:51:a8:fa:57:b9:52:c4:26:
                    cf:17:ca:ff:c1:66:d3:51:0f:3a:7a:55:4b:1c:73:
                    49:94:61:33:ff:a1:d2:15:ba:1f:5f:f9:6f:6d:e5:
                    32:dd:73:90:90:a8:99:de:c5:57:7b:60:5c:02:b3:
                    5e:c2:01:81:3f:bb:5f:84:47:f3:df:ad:06:dc:5f:
                    53:3e:4d:31:97:34:da:79:00:f1:78:b9:97:bd:43:
                    cb:34:42:31:c9:90:ae:d3:02:e9:16:ef:6a:74:48:
                    d9:2f
                Exponent: 65537 (0x10001)
        X509v3 extensions:
            X509v3 Basic Constraints: 
                CA:FALSE
            X509v3 Key Usage: 
                Digital Signature, Key Encipherment
            Netscape Comment: 
                OpenSSL Generated Certificate
            X509v3 Subject Key Identifier: 
                08:32:6D:65:9A:22:88:C4:34:00:73:0D:A0:1A:A6:41:DE:64:A6:A1
            X509v3 Authority Key Identifier: 
                keyid:81:75:15:61:BD:14:5D:4D:97:E1:6C:03:0D:E5:AF:ED:3D:C8:00:04

            X509v3 CRL Distribution Points: 

                Full Name:
                  URI:http://192.168.21.89/rootcrl.pem

    Signature Algorithm: sha1WithRSAEncryption
         5c:e0:73:c9:07:bf:80:13:e3:72:a9:d1:23:7e:5c:02:e5:2b:
         a4:ae:6f:28:8c:3d:4a:58:2d:22:a3:de:a2:3e:b0:52:15:52:
         37:59:29:05:4b:ce:83:2e:46:df:56:d8:f3:00:88:83:e7:35:
         aa:3f:73:1f:fe:5c:b7:b0:06:dc:98:f7:56:d9:9b:e6:23:96:
         37:7b:98:e8:4b:b8:84:91:44:6c:a3:32:34:c3:0e:7b:11:87:
         b7:b6:fc:2a:7b:d7:0b:2b:6a:17:fd:56:7c:71:da:67:1d:40:
         b1:d8:63:3d:d3:52:16:eb:25:4f:8c:e8:7a:a7:45:6a:e8:c8:
         c6:59:c4:a7:36:49:38:d9:a0:6a:91:a5:c6:dd:91:e4:7b:72:
         88:ef:75:4f:bb:e7:4f:2c:bd:de:31:51:d3:69:15:ad:ef:7f:
         61:89:f0:59:f7:f1:e4:eb:0a:36:cb:de:f9:20:f6:0e:ab:96:
         e7:87:10:b7:04:d6:25:a6:37:96:d9:26:17:68:21:55:8b:ce:
         cc:89:11:b6:be:a4:a9:30:03:95:21:f4:5e:09:e9:80:07:1f:
         2e:8a:92:20:68:0d:d9:47:de:ee:c6:e9:80:37:63:2b:df:78:
         47:35:c8:36:63:05:9a:ec:d5:b1:31:a2:68:b8:5b:71:cd:02:
         7b:1c:11:eb:ab:32:26:78:c8:ad:02:52:c5:ca:08:aa:fe:44:
         54:39:a3:a7:a2:a9:95:b4:ba:d7:9d:ad:21:c2:ea:4b:83:cd:
         4e:dc:ff:5d:83:11:33:e6:30:99:a6:4c:cf:ab:e7:ef:c2:33:
         43:80:a8:0a:ca:5f:af:2c:d7:fb:c4:2d:43:f7:91:a0:ec:69:
         6b:8f:1a:69:c8:57:f4:d3:5e:da:34:29:69:76:26:9f:0a:2a:
         72:78:4a:f2:64:3c:08:3c:01:2a:d6:26:2b:5a:12:e2:4e:43:
         41:65:d2:78:e4:37:78:80:03:22:7f:48:28:36:a4:8a:8b:69:
         56:db:0d:68:3e:36:15:6a:82:4a:89:56:47:1a:4a:a5:d3:37:
         64:93:0b:6e:0d:43:e1:80:e9:04:6e:46:94:9a:55:05:ad:83:
         1d:8a:42:e1:b2:5e:b6:57:3b:ef:04:e3:50:72:f3:26:1d:1d:
         0b:a6:f3:a6:e8:10:1a:ad:1f:53:2e:66:fb:f0:47:1f:f3:83:
         6a:f3:41:2a:38:9d:99:f4:43:2d:de:67:05:47:88:f9:c2:20:
         b8:5b:e4:90:b1:75:ea:9f:39:3d:e8:23:65:01:d6:1d:d5:8a:
         18:16:5a:2d:b3:76:86:0d:e1:d2:7f:3c:c8:51:a2:10:96:48:
         c2:b0:01:cc:19:c4:06:5d
-----BEGIN CERTIFICATE-----
MIIFajCCA1KgAwIBAgIBDjANBgkqhkiG9w0BAQUFADCBhDELMAkGA1UEBhMCQkEx
CzAJBgNVBAgTAlJTMSEwHwYDVQQKExhFbGVrdHJvdGVobmlja2kgZmFrdWx0ZXQx
ETAPBgNVBAsUCENBX0VURkJMMRAwDgYDVQQDEwdyb290IGNhMSAwHgYJKoZIhvcN
AQkBFhFub3JlcGx5QGV0ZmJsLm5ldDAeFw0yMTAyMjAxOTI2MTFaFw0yMjAyMjAx
OTI2MTFaMIGsMQswCQYDVQQGEwJCQTELMAkGA1UECBMCUlMxITAfBgNVBAoTGEVs
ZWt0cm90ZWhuaWNraSBmYWt1bHRldDERMA8GA1UECxQIQ0FfRVRGQkwxDjAMBgNV
BAMTBWphbmtvMScwJQYJKoZIhvcNAQkBFhhqYW5rby5qYW5rb3ZpY0BldGZibC5u
ZXQxETAPBgNVBAQTCEphbmtvdmljMQ4wDAYDVQQqEwVKYW5rbzCCASIwDQYJKoZI
hvcNAQEBBQADggEPADCCAQoCggEBAMfnvqeQ8/1XLH9ePp7IPg+QYj8FmMpUwnd1
8e3TKcBgrLswnNf0H0GNB8GDbz5ZNItf6ZdqTklW1gy05zPwVurDEYiiCJm4k9tz
oNH+aCXGB/bX29mR9zMEDP4nIPposlpRN/+NOkQcrvZ9Tio8LZMmoiPhV8ImL1or
EFkFdwndeyjWCEC8TCdgP1T0z3hWrj+GmTUmIo4qyNeiv1Go+le5UsQmzxfK/8Fm
01EPOnpVSxxzSZRhM/+h0hW6H1/5b23lMt1zkJComd7FV3tgXAKzXsIBgT+7X4RH
89+tBtxfUz5NMZc02nkA8Xi5l71DyzRCMcmQrtMC6RbvanRI2S8CAwEAAaOBvDCB
uTAJBgNVHRMEAjAAMAsGA1UdDwQEAwIFoDAsBglghkgBhvhCAQ0EHxYdT3BlblNT
TCBHZW5lcmF0ZWQgQ2VydGlmaWNhdGUwHQYDVR0OBBYEFAgybWWaIojENABzDaAa
pkHeZKahMB8GA1UdIwQYMBaAFIF1FWG9FF1Nl+FsAw3lr+09yAAEMDEGA1UdHwQq
MCgwJqAkoCKGIGh0dHA6Ly8xOTIuMTY4LjIxLjg5L3Jvb3RjcmwucGVtMA0GCSqG
SIb3DQEBBQUAA4ICAQBc4HPJB7+AE+NyqdEjflwC5Sukrm8ojD1KWC0io96iPrBS
FVI3WSkFS86DLkbfVtjzAIiD5zWqP3Mf/ly3sAbcmPdW2ZvmI5Y3e5joS7iEkURs
ozI0ww57EYe3tvwqe9cLK2oX/VZ8cdpnHUCx2GM901IW6yVPjOh6p0Vq6MjGWcSn
Nkk42aBqkaXG3ZHke3KI73VPu+dPLL3eMVHTaRWt739hifBZ9/Hk6wo2y975IPYO
q5bnhxC3BNYlpjeW2SYXaCFVi87MiRG2vqSpMAOVIfReCemABx8uipIgaA3ZR97u
xumAN2Mr33hHNcg2YwWa7NWxMaJouFtxzQJ7HBHrqzImeMitAlLFygiq/kRUOaOn
oqmVtLrXna0hwupLg81O3P9dgxEz5jCZpkzPq+fvwjNDgKgKyl+vLNf7xC1D95Gg
7GlrjxppyFf0017aNClpdiafCipyeEryZDwIPAEq1iYrWhLiTkNBZdJ45Dd4gAMi
f0goNqSKi2lW2w1oPjYVaoJKiVZHGkql0zdkkwtuDUPhgOkEbkaUmlUFrYMdikLh
sl62VzvvBONQcvMmHR0LpvOm6BAarR9TLmb78Ecf84Nq80EqOJ2Z9EMt3mcFR4j5
wiC4W+SQsXXqnzk96CNlAdYd1YoYFlots3aGDeHSfzzIUaIQlkjCsAHMGcQGXQ==
-----END CERTIFICATE-----
