Certificate:
    Data:
        Version: 3 (0x2)
        Serial Number: 15 (0xf)
        Signature Algorithm: sha1WithRSAEncryption
        Issuer: C=BA, ST=RS, O=Elektrotehnicki fakultet, OU=CA_ETFBL, CN=root ca/emailAddress=noreply@etfbl.net
        Validity
            Not Before: Feb 20 19:26:12 2021 GMT
            Not After : Feb 20 19:26:12 2022 GMT
        Subject: C=BA, ST=RS, O=Elektrotehnicki fakultet, OU=CA_ETFBL, CN=stefan/emailAddress=stefan.stefic@etfbl.net, SN=Stefic, GN=Stefan
        Subject Public Key Info:
            Public Key Algorithm: rsaEncryption
                RSA Public-Key: (2048 bit)
                Modulus:
                    00:af:a3:03:60:5d:5f:18:5f:da:19:b2:a8:de:4d:
                    2c:6b:58:98:8f:5a:99:9d:ef:aa:f7:02:9b:81:2f:
                    92:c4:1a:f1:54:22:26:3a:54:f3:7d:f7:6f:74:f9:
                    a6:ae:89:e5:c9:44:4f:34:ff:84:73:65:06:50:85:
                    cb:2a:9f:4c:f0:bd:74:eb:0c:b2:97:3e:75:5f:92:
                    99:68:2d:b3:b8:96:e3:61:a1:f6:56:60:61:85:a1:
                    67:a2:3c:a1:74:94:56:16:18:62:c0:ff:05:6c:c8:
                    f0:0f:cc:b9:67:24:2e:ff:5f:b6:a2:9e:12:98:1f:
                    a4:c2:73:3a:01:79:ef:d8:20:b3:3f:ed:52:d7:8d:
                    cb:2e:28:0b:ba:2f:7c:91:8c:fc:3c:42:c0:37:9b:
                    2c:07:4d:7d:05:6d:29:06:8d:a6:98:3c:3f:da:16:
                    42:f8:1b:99:66:4f:72:6c:4d:da:e9:5d:fa:0f:7b:
                    2d:2f:31:5f:e3:df:bd:f7:b0:59:0a:e1:15:11:eb:
                    0b:84:48:a2:33:12:f9:fc:da:09:5e:78:13:e0:71:
                    6f:c9:bf:8c:65:42:b4:3a:14:7f:60:31:eb:7e:cb:
                    12:3f:dd:c2:a6:f2:a2:2a:f5:5b:3a:8d:97:7a:5a:
                    5e:c7:e2:a1:67:01:ce:99:35:ed:f0:f9:4e:53:ca:
                    9d:57
                Exponent: 65537 (0x10001)
        X509v3 extensions:
            X509v3 Basic Constraints: 
                CA:FALSE
            X509v3 Key Usage: 
                Digital Signature, Key Encipherment
            Netscape Comment: 
                OpenSSL Generated Certificate
            X509v3 Subject Key Identifier: 
                28:95:0F:4A:AB:9A:04:3C:DB:F5:27:6B:D7:39:84:8A:D7:89:F9:81
            X509v3 Authority Key Identifier: 
                keyid:81:75:15:61:BD:14:5D:4D:97:E1:6C:03:0D:E5:AF:ED:3D:C8:00:04

            X509v3 CRL Distribution Points: 

                Full Name:
                  URI:http://192.168.21.89/rootcrl.pem

    Signature Algorithm: sha1WithRSAEncryption
         b9:0d:4e:81:3f:a6:cf:9e:ac:89:d0:93:28:a5:2c:3c:d0:8e:
         c8:0a:b8:d0:ee:48:5f:fc:73:aa:e5:a5:65:f6:aa:06:8f:a4:
         61:dd:33:2b:e3:f8:90:ed:2c:86:7d:ff:72:63:70:ba:97:0a:
         74:1b:1e:bd:63:17:98:f8:2f:90:8a:4f:96:67:30:27:96:99:
         f1:09:6d:97:58:33:df:ad:d5:6e:54:86:07:71:6e:2d:96:75:
         34:8c:d2:70:3c:16:06:16:0c:a9:df:2a:20:09:29:88:3c:28:
         78:2d:be:d8:2c:49:47:1d:a4:ea:42:f6:d9:4a:17:70:37:a6:
         9d:18:9b:d7:fd:51:d8:92:1b:44:8b:46:81:c6:4a:22:72:48:
         de:a4:29:6f:92:24:61:1c:b2:86:f2:47:f7:b7:ab:6c:cc:6d:
         ef:16:54:e1:51:07:71:16:88:6d:ed:c6:3e:65:2e:50:94:f6:
         12:25:d9:50:05:b5:12:99:f2:05:fb:d6:f9:eb:79:2b:c5:48:
         9f:af:bf:57:5a:ec:10:db:1d:da:f7:73:24:d3:f2:82:cd:bf:
         bd:c1:a3:26:d0:b0:b2:97:9b:c4:aa:94:3a:44:ec:d0:a7:7c:
         8a:8a:4e:aa:4a:cf:a9:49:28:63:02:c5:7f:56:4f:4e:8e:88:
         a1:8d:19:b5:14:55:a1:51:a9:21:e8:bb:b1:28:69:56:f7:50:
         f4:42:ae:d2:46:e2:59:2c:9c:a3:78:9a:7a:6a:cb:62:64:d3:
         9a:28:ec:b5:d9:dd:7a:fa:16:a3:db:d6:b6:12:ab:6a:59:a8:
         56:f0:0a:7c:91:b4:01:2a:1f:6c:87:9d:92:ac:82:21:10:b7:
         25:89:86:b8:0a:e1:73:db:88:56:1a:aa:c9:dd:19:81:16:a2:
         11:1d:e2:13:db:e0:bf:6b:a3:e7:86:8c:67:52:d7:6f:b9:df:
         7c:1e:40:7c:34:fa:1a:d6:05:53:cf:0a:06:8f:c4:30:b4:0e:
         32:78:01:23:96:5a:d2:0e:7c:b5:84:34:40:0d:a9:e9:aa:5f:
         3e:a0:cc:80:c8:31:98:2e:b2:e9:49:15:95:45:e3:c3:04:f3:
         e8:fa:42:83:f4:c9:67:0b:01:5e:f2:27:c8:96:95:71:d5:52:
         e9:3d:05:fb:68:35:e0:79:5a:89:5d:3c:59:34:c0:df:c9:1b:
         95:ac:ad:fb:30:84:1a:c5:98:47:24:ae:f5:95:a2:f9:87:d4:
         19:67:96:0a:08:cf:39:b1:e1:fc:4a:2a:c3:f8:17:30:75:91:
         e9:d8:2f:2a:a3:32:af:94:52:55:31:29:aa:01:23:91:53:c5:
         1f:64:0f:08:aa:d8:ba:e5
-----BEGIN CERTIFICATE-----
MIIFaTCCA1GgAwIBAgIBDzANBgkqhkiG9w0BAQUFADCBhDELMAkGA1UEBhMCQkEx
CzAJBgNVBAgTAlJTMSEwHwYDVQQKExhFbGVrdHJvdGVobmlja2kgZmFrdWx0ZXQx
ETAPBgNVBAsUCENBX0VURkJMMRAwDgYDVQQDEwdyb290IGNhMSAwHgYJKoZIhvcN
AQkBFhFub3JlcGx5QGV0ZmJsLm5ldDAeFw0yMTAyMjAxOTI2MTJaFw0yMjAyMjAx
OTI2MTJaMIGrMQswCQYDVQQGEwJCQTELMAkGA1UECBMCUlMxITAfBgNVBAoTGEVs
ZWt0cm90ZWhuaWNraSBmYWt1bHRldDERMA8GA1UECxQIQ0FfRVRGQkwxDzANBgNV
BAMTBnN0ZWZhbjEmMCQGCSqGSIb3DQEJARYXc3RlZmFuLnN0ZWZpY0BldGZibC5u
ZXQxDzANBgNVBAQTBlN0ZWZpYzEPMA0GA1UEKhMGU3RlZmFuMIIBIjANBgkqhkiG
9w0BAQEFAAOCAQ8AMIIBCgKCAQEAr6MDYF1fGF/aGbKo3k0sa1iYj1qZne+q9wKb
gS+SxBrxVCImOlTzffdvdPmmronlyURPNP+Ec2UGUIXLKp9M8L106wyylz51X5KZ
aC2zuJbjYaH2VmBhhaFnojyhdJRWFhhiwP8FbMjwD8y5ZyQu/1+2op4SmB+kwnM6
AXnv2CCzP+1S143LLigLui98kYz8PELAN5ssB019BW0pBo2mmDw/2hZC+BuZZk9y
bE3a6V36D3stLzFf49+997BZCuEVEesLhEiiMxL5/NoJXngT4HFvyb+MZUK0OhR/
YDHrfssSP93CpvKiKvVbOo2Xelpex+KhZwHOmTXt8PlOU8qdVwIDAQABo4G8MIG5
MAkGA1UdEwQCMAAwCwYDVR0PBAQDAgWgMCwGCWCGSAGG+EIBDQQfFh1PcGVuU1NM
IEdlbmVyYXRlZCBDZXJ0aWZpY2F0ZTAdBgNVHQ4EFgQUKJUPSquaBDzb9Sdr1zmE
iteJ+YEwHwYDVR0jBBgwFoAUgXUVYb0UXU2X4WwDDeWv7T3IAAQwMQYDVR0fBCow
KDAmoCSgIoYgaHR0cDovLzE5Mi4xNjguMjEuODkvcm9vdGNybC5wZW0wDQYJKoZI
hvcNAQEFBQADggIBALkNToE/ps+erInQkyilLDzQjsgKuNDuSF/8c6rlpWX2qgaP
pGHdMyvj+JDtLIZ9/3JjcLqXCnQbHr1jF5j4L5CKT5ZnMCeWmfEJbZdYM9+t1W5U
hgdxbi2WdTSM0nA8FgYWDKnfKiAJKYg8KHgtvtgsSUcdpOpC9tlKF3A3pp0Ym9f9
UdiSG0SLRoHGSiJySN6kKW+SJGEcsobyR/e3q2zMbe8WVOFRB3EWiG3txj5lLlCU
9hIl2VAFtRKZ8gX71vnreSvFSJ+vv1da7BDbHdr3cyTT8oLNv73BoybQsLKXm8Sq
lDpE7NCnfIqKTqpKz6lJKGMCxX9WT06OiKGNGbUUVaFRqSHou7EoaVb3UPRCrtJG
4lksnKN4mnpqy2Jk05oo7LXZ3Xr6FqPb1rYSq2pZqFbwCnyRtAEqH2yHnZKsgiEQ
tyWJhrgK4XPbiFYaqsndGYEWohEd4hPb4L9ro+eGjGdS12+533weQHw0+hrWBVPP
CgaPxDC0DjJ4ASOWWtIOfLWENEANqemqXz6gzIDIMZgusulJFZVF48ME8+j6QoP0
yWcLAV7yJ8iWlXHVUuk9BftoNeB5WoldPFk0wN/JG5WsrfswhBrFmEckrvWVovmH
1BlnlgoIzzmx4fxKKsP4FzB1kenYLyqjMq+UUlUxKaoBI5FTxR9kDwiq2Lrl
-----END CERTIFICATE-----
