Certificate:
    Data:
        Version: 3 (0x2)
        Serial Number: 21 (0x15)
        Signature Algorithm: sha1WithRSAEncryption
        Issuer: C=BA, ST=RS, O=Elektrotehnicki fakultet, OU=CA_ETFBL, CN=root ca/emailAddress=noreply@etfbl.net
        Validity
            Not Before: Feb 22 12:52:43 2021 GMT
            Not After : Feb 23 12:52:43 2021 GMT
        Subject: C=BA, ST=RS, O=Elektrotehnicki fakultet, OU=CA_ETFBL, CN=luka/emailAddress=luka.lukic@etfbl.net, SN=Lukic, GN=Luka
        Subject Public Key Info:
            Public Key Algorithm: rsaEncryption
                RSA Public-Key: (2048 bit)
                Modulus:
                    00:a7:e4:9d:f5:2b:a8:72:3f:5d:34:96:9f:11:28:
                    1f:f4:69:ad:a9:d0:9e:24:e6:59:e3:f1:e5:fc:dc:
                    e1:4f:82:6f:63:5c:1b:fe:1b:ac:23:07:13:d6:f3:
                    b5:32:21:99:8e:c6:b4:d3:d4:fc:95:f0:a6:be:b5:
                    43:af:c7:a1:36:77:20:cb:30:c6:20:76:db:49:4e:
                    14:66:a8:5b:b4:99:f1:70:fa:0a:c2:26:bd:86:00:
                    25:5c:77:04:d4:a5:d6:7e:79:16:69:35:76:9b:de:
                    c7:06:47:11:4f:79:01:2e:ab:59:c1:62:5d:af:75:
                    0e:54:34:5e:64:3c:eb:8b:48:80:30:41:d1:8c:ef:
                    ba:ba:8a:cc:b0:02:c2:b5:be:f6:27:6b:87:f3:ec:
                    7c:92:aa:d0:af:d2:cb:4b:3d:e2:2d:f4:09:aa:d6:
                    87:94:94:c0:ad:70:27:cb:15:a0:43:eb:6f:8e:8f:
                    f6:3b:64:ea:f3:e0:23:e7:17:4b:c1:e8:ed:48:27:
                    7c:e5:31:f2:65:a1:9c:9d:2b:6f:d3:f2:1c:97:d3:
                    de:5c:d0:f9:0d:ee:89:d5:4b:33:35:04:ca:79:92:
                    17:43:54:6f:ab:2b:14:f9:cc:5c:60:1e:f8:ef:d9:
                    e9:b9:e0:74:c7:03:0e:51:30:02:2f:6f:2f:bb:47:
                    f7:8b
                Exponent: 65537 (0x10001)
        X509v3 extensions:
            X509v3 Basic Constraints: 
                CA:FALSE
            X509v3 Key Usage: 
                Digital Signature, Key Encipherment
            Netscape Comment: 
                OpenSSL Generated Certificate
            X509v3 Subject Key Identifier: 
                41:94:45:AE:72:CA:24:05:55:A9:DB:1D:94:A1:08:A0:77:53:46:56
            X509v3 Authority Key Identifier: 
                keyid:81:75:15:61:BD:14:5D:4D:97:E1:6C:03:0D:E5:AF:ED:3D:C8:00:04

            X509v3 CRL Distribution Points: 

                Full Name:
                  URI:http://192.168.21.89/rootcrl.pem

    Signature Algorithm: sha1WithRSAEncryption
         a8:ad:7c:19:8a:51:86:27:9e:b3:5b:8f:0a:5e:9a:4f:60:5f:
         08:f4:30:3c:ca:04:60:f2:14:05:8c:d1:7b:af:61:e9:d4:fc:
         4c:61:30:1b:00:b4:29:42:c2:7c:f7:5f:36:4c:65:cc:56:bc:
         58:f6:f1:33:9a:12:dd:af:58:2f:7c:19:70:d1:3a:1f:ca:82:
         33:ee:6e:b0:c8:e0:03:91:b0:5e:45:91:a3:88:57:7f:ee:cf:
         1b:4a:f4:02:75:e2:57:e4:68:9a:4c:35:c6:b7:6b:f6:5f:aa:
         6c:fa:09:73:8c:5f:b6:f7:77:ce:c5:fe:a8:ef:80:4c:18:30:
         fd:53:3e:71:ae:48:fe:45:db:29:a4:a5:4a:54:51:87:63:42:
         b5:eb:28:7a:3a:bc:90:96:79:08:4e:6b:fe:49:89:16:5e:da:
         fd:a4:ab:02:be:ce:ac:9e:74:ac:cb:d8:1f:28:74:76:c3:6a:
         c5:0b:f0:f1:01:1e:e0:54:b4:a8:b5:c0:0f:12:a8:b6:d7:24:
         d5:21:2c:7c:d4:fe:30:40:01:68:f4:01:15:45:6a:d8:4f:b3:
         70:07:39:a2:d0:e4:85:cc:28:8c:69:ff:97:6e:fb:af:bd:30:
         cc:c4:10:39:0b:68:8f:c9:e3:29:e0:95:ae:a0:5a:8a:e4:fc:
         39:32:6d:61:3d:a0:a6:f4:44:15:49:6c:09:6e:82:d1:20:a0:
         2a:6b:8b:25:1c:b5:e6:92:11:ec:02:20:d0:83:1d:9b:04:87:
         c9:70:08:f5:d8:93:7c:d9:8b:63:bc:5b:57:34:50:dd:b6:7b:
         7a:f3:2b:6c:2b:3a:ef:36:92:ee:9c:25:28:ac:e6:72:e6:95:
         44:cd:74:5c:0e:31:86:e4:fd:bc:a8:85:ee:91:b3:42:03:ac:
         eb:65:df:4c:c3:91:dc:62:83:9a:79:d7:f2:b5:d6:ff:ee:a7:
         6d:ad:36:12:49:16:e8:2f:ac:d5:28:ea:77:f6:cd:48:a1:5b:
         1a:a9:f3:ea:06:b1:4f:a4:91:1c:a5:d1:ab:b3:b0:d1:2a:e8:
         b7:86:33:5c:78:e0:62:74:ad:ac:01:ee:90:cf:73:24:0a:53:
         46:47:a2:0e:6a:ab:cb:63:f3:9a:3d:63:b7:9a:a6:83:b3:54:
         23:e0:db:ef:f9:cc:0f:40:3e:3f:f2:0c:59:c7:e0:61:d3:2d:
         d3:00:ec:6d:1c:43:58:fb:2d:bc:7b:24:39:78:5e:97:da:d5:
         3b:c5:9b:45:b0:38:9f:6e:d4:6c:bf:9f:56:49:57:b4:95:40:
         21:a3:a1:8d:0b:50:66:66:c3:4f:be:7d:8e:26:09:60:37:aa:
         00:5a:6f:81:53:c2:23:ab
-----BEGIN CERTIFICATE-----
MIIFYTCCA0mgAwIBAgIBFTANBgkqhkiG9w0BAQUFADCBhDELMAkGA1UEBhMCQkEx
CzAJBgNVBAgTAlJTMSEwHwYDVQQKExhFbGVrdHJvdGVobmlja2kgZmFrdWx0ZXQx
ETAPBgNVBAsUCENBX0VURkJMMRAwDgYDVQQDEwdyb290IGNhMSAwHgYJKoZIhvcN
AQkBFhFub3JlcGx5QGV0ZmJsLm5ldDAeFw0yMTAyMjIxMjUyNDNaFw0yMTAyMjMx
MjUyNDNaMIGjMQswCQYDVQQGEwJCQTELMAkGA1UECBMCUlMxITAfBgNVBAoTGEVs
ZWt0cm90ZWhuaWNraSBmYWt1bHRldDERMA8GA1UECxQIQ0FfRVRGQkwxDTALBgNV
BAMTBGx1a2ExIzAhBgkqhkiG9w0BCQEWFGx1a2EubHVraWNAZXRmYmwubmV0MQ4w
DAYDVQQEEwVMdWtpYzENMAsGA1UEKhMETHVrYTCCASIwDQYJKoZIhvcNAQEBBQAD
ggEPADCCAQoCggEBAKfknfUrqHI/XTSWnxEoH/RpranQniTmWePx5fzc4U+Cb2Nc
G/4brCMHE9bztTIhmY7GtNPU/JXwpr61Q6/HoTZ3IMswxiB220lOFGaoW7SZ8XD6
CsImvYYAJVx3BNSl1n55Fmk1dpvexwZHEU95AS6rWcFiXa91DlQ0XmQ864tIgDBB
0YzvurqKzLACwrW+9idrh/PsfJKq0K/Sy0s94i30CarWh5SUwK1wJ8sVoEPrb46P
9jtk6vPgI+cXS8Ho7UgnfOUx8mWhnJ0rb9PyHJfT3lzQ+Q3uidVLMzUEynmSF0NU
b6srFPnMXGAe+O/Z6bngdMcDDlEwAi9vL7tH94sCAwEAAaOBvDCBuTAJBgNVHRME
AjAAMAsGA1UdDwQEAwIFoDAsBglghkgBhvhCAQ0EHxYdT3BlblNTTCBHZW5lcmF0
ZWQgQ2VydGlmaWNhdGUwHQYDVR0OBBYEFEGURa5yyiQFVanbHZShCKB3U0ZWMB8G
A1UdIwQYMBaAFIF1FWG9FF1Nl+FsAw3lr+09yAAEMDEGA1UdHwQqMCgwJqAkoCKG
IGh0dHA6Ly8xOTIuMTY4LjIxLjg5L3Jvb3RjcmwucGVtMA0GCSqGSIb3DQEBBQUA
A4ICAQCorXwZilGGJ56zW48KXppPYF8I9DA8ygRg8hQFjNF7r2Hp1PxMYTAbALQp
QsJ89182TGXMVrxY9vEzmhLdr1gvfBlw0TofyoIz7m6wyOADkbBeRZGjiFd/7s8b
SvQCdeJX5GiaTDXGt2v2X6ps+glzjF+293fOxf6o74BMGDD9Uz5xrkj+RdsppKVK
VFGHY0K16yh6OryQlnkITmv+SYkWXtr9pKsCvs6snnSsy9gfKHR2w2rFC/DxAR7g
VLSotcAPEqi21yTVISx81P4wQAFo9AEVRWrYT7NwBzmi0OSFzCiMaf+XbvuvvTDM
xBA5C2iPyeMp4JWuoFqK5Pw5Mm1hPaCm9EQVSWwJboLRIKAqa4slHLXmkhHsAiDQ
gx2bBIfJcAj12JN82YtjvFtXNFDdtnt68ytsKzrvNpLunCUorOZy5pVEzXRcDjGG
5P28qIXukbNCA6zrZd9Mw5HcYoOaedfytdb/7qdtrTYSSRboL6zVKOp39s1IoVsa
qfPqBrFPpJEcpdGrs7DRKui3hjNceOBidK2sAe6Qz3MkClNGR6IOaqvLY/OaPWO3
mqaDs1Qj4Nvv+cwPQD4/8gxZx+Bh0y3TAOxtHENY+y28eyQ5eF6X2tU7xZtFsDif
btRsv59WSVe0lUAho6GNC1BmZsNPvn2OJglgN6oAWm+BU8Ijqw==
-----END CERTIFICATE-----
