Certificate:
    Data:
        Version: 3 (0x2)
        Serial Number: 16 (0x10)
        Signature Algorithm: sha1WithRSAEncryption
        Issuer: C=BA, ST=RS, O=Elektrotehnicki fakultet, OU=CA_ETFBL, CN=root ca/emailAddress=noreply@etfbl.net
        Validity
            Not Before: Feb 20 19:26:13 2021 GMT
            Not After : Feb 20 19:26:13 2022 GMT
        Subject: C=BA, ST=RS, O=Elektrotehnicki fakultet, OU=CA_ETFBL, CN=luka/emailAddress=luka.lukic@etfbl.net, SN=Lukic, GN=Luka
        Subject Public Key Info:
            Public Key Algorithm: rsaEncryption
                RSA Public-Key: (2048 bit)
                Modulus:
                    00:a7:e4:9d:f5:2b:a8:72:3f:5d:34:96:9f:11:28:
                    1f:f4:69:ad:a9:d0:9e:24:e6:59:e3:f1:e5:fc:dc:
                    e1:4f:82:6f:63:5c:1b:fe:1b:ac:23:07:13:d6:f3:
                    b5:32:21:99:8e:c6:b4:d3:d4:fc:95:f0:a6:be:b5:
                    43:af:c7:a1:36:77:20:cb:30:c6:20:76:db:49:4e:
                    14:66:a8:5b:b4:99:f1:70:fa:0a:c2:26:bd:86:00:
                    25:5c:77:04:d4:a5:d6:7e:79:16:69:35:76:9b:de:
                    c7:06:47:11:4f:79:01:2e:ab:59:c1:62:5d:af:75:
                    0e:54:34:5e:64:3c:eb:8b:48:80:30:41:d1:8c:ef:
                    ba:ba:8a:cc:b0:02:c2:b5:be:f6:27:6b:87:f3:ec:
                    7c:92:aa:d0:af:d2:cb:4b:3d:e2:2d:f4:09:aa:d6:
                    87:94:94:c0:ad:70:27:cb:15:a0:43:eb:6f:8e:8f:
                    f6:3b:64:ea:f3:e0:23:e7:17:4b:c1:e8:ed:48:27:
                    7c:e5:31:f2:65:a1:9c:9d:2b:6f:d3:f2:1c:97:d3:
                    de:5c:d0:f9:0d:ee:89:d5:4b:33:35:04:ca:79:92:
                    17:43:54:6f:ab:2b:14:f9:cc:5c:60:1e:f8:ef:d9:
                    e9:b9:e0:74:c7:03:0e:51:30:02:2f:6f:2f:bb:47:
                    f7:8b
                Exponent: 65537 (0x10001)
        X509v3 extensions:
            X509v3 Basic Constraints: 
                CA:FALSE
            X509v3 Key Usage: 
                Digital Signature, Key Encipherment
            Netscape Comment: 
                OpenSSL Generated Certificate
            X509v3 Subject Key Identifier: 
                41:94:45:AE:72:CA:24:05:55:A9:DB:1D:94:A1:08:A0:77:53:46:56
            X509v3 Authority Key Identifier: 
                keyid:81:75:15:61:BD:14:5D:4D:97:E1:6C:03:0D:E5:AF:ED:3D:C8:00:04

            X509v3 CRL Distribution Points: 

                Full Name:
                  URI:http://192.168.21.89/rootcrl.pem

    Signature Algorithm: sha1WithRSAEncryption
         57:88:f9:38:f6:97:af:0b:19:46:f0:3d:f3:d2:fe:39:0a:88:
         dc:20:47:ef:06:01:8c:44:b8:0c:e9:d9:84:9e:bf:eb:1c:6f:
         bd:43:d6:6b:d9:f6:00:d3:f7:3c:2f:fa:e2:f8:46:d3:27:29:
         21:da:d4:39:0d:cf:41:52:c2:4b:c2:3d:b3:e8:ac:20:e0:14:
         6a:09:e7:20:25:b3:2e:90:a3:b0:d1:a1:71:98:6a:e1:35:b5:
         c7:0b:6d:58:28:f3:b9:f8:51:6a:dd:ad:dd:89:74:a9:bf:b2:
         bb:c9:1c:f2:ab:06:36:0c:5e:a5:9f:7e:a9:b5:f0:9d:f6:91:
         1d:aa:55:9b:8a:22:1e:ac:18:39:d1:aa:56:65:aa:2e:c8:5c:
         65:17:15:de:24:d3:76:4a:73:9b:2a:56:7d:27:c5:dc:db:65:
         84:9d:94:1c:b8:a3:0c:e7:a7:07:47:1a:1b:17:47:81:96:7d:
         d1:9c:e5:15:d2:db:9c:25:1a:21:1f:d5:d3:f4:bb:6f:74:d4:
         7f:e2:29:83:7e:8b:60:d5:50:54:4d:60:76:09:75:58:14:9e:
         bd:b0:38:e9:47:ac:0a:46:d0:49:90:04:04:1c:c0:6a:84:70:
         93:69:3d:84:cf:c5:8b:e2:33:c4:df:d1:1f:87:fe:29:95:9d:
         c1:fa:76:98:d2:57:df:25:be:e7:10:42:ca:88:08:be:d1:da:
         7c:1f:1b:1f:8c:20:4b:32:42:78:cf:1f:dd:ce:6b:4f:29:31:
         87:6b:b5:3e:47:7a:1a:0d:34:c5:95:6d:e5:c7:57:96:4a:3f:
         0e:d4:4a:61:f3:2e:67:be:5d:e5:81:02:b9:bc:f4:53:4a:22:
         ab:0c:be:5e:89:70:b4:ed:e6:79:be:55:3d:67:ab:6c:eb:ef:
         1c:21:3f:0e:ba:6a:ef:3d:9b:c8:a7:43:9b:a3:fb:97:fa:22:
         ab:56:74:c8:f3:59:b4:dc:68:86:22:b5:42:ad:99:a6:b7:a3:
         12:3a:70:7b:98:8c:66:d5:c7:57:bd:eb:4e:69:1e:12:b4:75:
         34:b9:26:cd:c7:a6:94:ce:7e:29:02:bb:7b:5a:0a:14:1f:96:
         01:b7:b2:97:12:7d:86:a5:43:55:8a:a7:8b:b1:c7:9d:43:da:
         00:de:62:30:58:f4:44:b0:a7:b7:ac:dc:44:38:b7:42:bf:fe:
         9c:fd:44:68:25:1b:41:e6:e4:ff:ed:73:bd:c9:e4:eb:71:4c:
         f0:08:9b:11:25:e7:cd:70:8c:a3:c0:7a:a8:e2:22:53:69:06:
         30:15:f6:e6:4f:47:a5:7e:6d:04:ad:5f:57:86:01:f4:5d:f9:
         30:c1:a0:b2:5d:08:98:fd
-----BEGIN CERTIFICATE-----
MIIFYTCCA0mgAwIBAgIBEDANBgkqhkiG9w0BAQUFADCBhDELMAkGA1UEBhMCQkEx
CzAJBgNVBAgTAlJTMSEwHwYDVQQKExhFbGVrdHJvdGVobmlja2kgZmFrdWx0ZXQx
ETAPBgNVBAsUCENBX0VURkJMMRAwDgYDVQQDEwdyb290IGNhMSAwHgYJKoZIhvcN
AQkBFhFub3JlcGx5QGV0ZmJsLm5ldDAeFw0yMTAyMjAxOTI2MTNaFw0yMjAyMjAx
OTI2MTNaMIGjMQswCQYDVQQGEwJCQTELMAkGA1UECBMCUlMxITAfBgNVBAoTGEVs
ZWt0cm90ZWhuaWNraSBmYWt1bHRldDERMA8GA1UECxQIQ0FfRVRGQkwxDTALBgNV
BAMTBGx1a2ExIzAhBgkqhkiG9w0BCQEWFGx1a2EubHVraWNAZXRmYmwubmV0MQ4w
DAYDVQQEEwVMdWtpYzENMAsGA1UEKhMETHVrYTCCASIwDQYJKoZIhvcNAQEBBQAD
ggEPADCCAQoCggEBAKfknfUrqHI/XTSWnxEoH/RpranQniTmWePx5fzc4U+Cb2Nc
G/4brCMHE9bztTIhmY7GtNPU/JXwpr61Q6/HoTZ3IMswxiB220lOFGaoW7SZ8XD6
CsImvYYAJVx3BNSl1n55Fmk1dpvexwZHEU95AS6rWcFiXa91DlQ0XmQ864tIgDBB
0YzvurqKzLACwrW+9idrh/PsfJKq0K/Sy0s94i30CarWh5SUwK1wJ8sVoEPrb46P
9jtk6vPgI+cXS8Ho7UgnfOUx8mWhnJ0rb9PyHJfT3lzQ+Q3uidVLMzUEynmSF0NU
b6srFPnMXGAe+O/Z6bngdMcDDlEwAi9vL7tH94sCAwEAAaOBvDCBuTAJBgNVHRME
AjAAMAsGA1UdDwQEAwIFoDAsBglghkgBhvhCAQ0EHxYdT3BlblNTTCBHZW5lcmF0
ZWQgQ2VydGlmaWNhdGUwHQYDVR0OBBYEFEGURa5yyiQFVanbHZShCKB3U0ZWMB8G
A1UdIwQYMBaAFIF1FWG9FF1Nl+FsAw3lr+09yAAEMDEGA1UdHwQqMCgwJqAkoCKG
IGh0dHA6Ly8xOTIuMTY4LjIxLjg5L3Jvb3RjcmwucGVtMA0GCSqGSIb3DQEBBQUA
A4ICAQBXiPk49pevCxlG8D3z0v45CojcIEfvBgGMRLgM6dmEnr/rHG+9Q9Zr2fYA
0/c8L/ri+EbTJykh2tQ5Dc9BUsJLwj2z6Kwg4BRqCecgJbMukKOw0aFxmGrhNbXH
C21YKPO5+FFq3a3diXSpv7K7yRzyqwY2DF6ln36ptfCd9pEdqlWbiiIerBg50apW
ZaouyFxlFxXeJNN2SnObKlZ9J8Xc22WEnZQcuKMM56cHRxobF0eBln3RnOUV0tuc
JRohH9XT9LtvdNR/4imDfotg1VBUTWB2CXVYFJ69sDjpR6wKRtBJkAQEHMBqhHCT
aT2Ez8WL4jPE39Efh/4plZ3B+naY0lffJb7nEELKiAi+0dp8HxsfjCBLMkJ4zx/d
zmtPKTGHa7U+R3oaDTTFlW3lx1eWSj8O1Eph8y5nvl3lgQK5vPRTSiKrDL5eiXC0
7eZ5vlU9Z6ts6+8cIT8OumrvPZvIp0Obo/uX+iKrVnTI81m03GiGIrVCrZmmt6MS
OnB7mIxm1cdXvetOaR4StHU0uSbNx6aUzn4pArt7WgoUH5YBt7KXEn2GpUNViqeL
scedQ9oA3mIwWPREsKe3rNxEOLdCv/6c/URoJRtB5uT/7XO9yeTrcUzwCJsRJefN
cIyjwHqo4iJTaQYwFfbmT0elfm0ErV9XhgH0XfkwwaCyXQiY/Q==
-----END CERTIFICATE-----
