Certificate:
    Data:
        Version: 3 (0x2)
        Serial Number: 17 (0x11)
        Signature Algorithm: sha1WithRSAEncryption
        Issuer: C=BA, ST=RS, O=Elektrotehnicki fakultet, OU=CA_ETFBL, CN=root ca/emailAddress=noreply@etfbl.net
        Validity
            Not Before: Feb 20 19:26:50 2021 GMT
            Not After : Feb 21 19:26:50 2021 GMT
        Subject: C=BA, ST=RS, O=Elektrotehnicki fakultet, OU=CA_ETFBL, CN=vlaja/emailAddress=vlaja.vlajic@etfbl.net, SN=Vlajic, GN=Vlaja
        Subject Public Key Info:
            Public Key Algorithm: rsaEncryption
                RSA Public-Key: (1024 bit)
                Modulus:
                    00:ca:18:85:f0:a6:86:e7:81:be:03:21:c0:b3:bf:
                    56:e7:99:0d:56:8d:a5:b8:e6:a1:20:c8:81:2b:9e:
                    54:0d:b0:e8:05:52:a2:9e:30:03:6f:12:d5:81:65:
                    8e:6b:8f:16:ae:b7:da:5e:0b:d9:07:41:25:22:46:
                    b7:18:26:d9:1a:59:67:09:9b:e9:0a:37:cc:d0:d4:
                    84:08:8f:f0:36:a9:ed:5a:0e:02:3f:e0:e8:d6:6f:
                    9b:7f:53:e0:a0:1f:9d:03:31:46:b6:bf:64:4e:61:
                    2a:01:de:a3:1f:9e:45:db:ee:42:98:b1:14:41:37:
                    8b:76:91:48:f2:4b:cc:07:43
                Exponent: 65537 (0x10001)
        X509v3 extensions:
            X509v3 Basic Constraints: 
                CA:FALSE
            X509v3 Key Usage: 
                Digital Signature, Key Encipherment
            Netscape Comment: 
                OpenSSL Generated Certificate
            X509v3 Subject Key Identifier: 
                1C:45:FE:E5:4F:3A:AB:83:77:54:07:A2:88:4F:49:79:52:F7:B9:20
            X509v3 Authority Key Identifier: 
                keyid:81:75:15:61:BD:14:5D:4D:97:E1:6C:03:0D:E5:AF:ED:3D:C8:00:04

            X509v3 CRL Distribution Points: 

                Full Name:
                  URI:http://192.168.21.89/rootcrl.pem

    Signature Algorithm: sha1WithRSAEncryption
         60:f6:d3:85:ff:bf:f6:c7:b9:46:dd:fc:46:11:43:1d:c8:3c:
         e1:b0:60:20:a0:52:1f:a3:d0:1b:04:0f:e9:cc:e9:ab:96:58:
         0a:93:f1:e9:84:5d:f0:75:4c:8f:cf:0c:38:60:8f:44:74:5f:
         68:2f:71:8d:f5:5f:eb:85:fd:6a:0a:79:22:f2:20:bf:d4:16:
         eb:6c:29:3a:c1:d5:68:d5:fa:3d:2d:c2:fb:4b:e1:3c:24:46:
         1c:05:10:93:d4:bc:73:ee:e0:50:b2:d1:1d:bf:3e:04:e7:4f:
         38:a0:3a:b1:39:bc:04:5d:58:4e:22:5f:e0:19:ba:4b:6b:c7:
         6f:85:49:29:49:84:a1:90:08:88:76:51:5a:1f:ce:3c:a0:af:
         d6:10:95:80:6e:35:3a:59:a0:77:67:68:ab:a5:f2:34:85:5f:
         6f:e8:c6:4d:39:1c:57:e1:62:2b:30:03:48:d5:6e:4b:10:99:
         a0:44:34:1a:7e:60:c9:d6:15:c3:a5:29:4f:ca:30:f0:4c:1c:
         bf:4c:d6:ba:b1:5c:fb:ac:b0:90:0f:bd:4d:52:e8:b6:c0:40:
         bc:87:43:33:02:a2:62:8d:6c:52:28:1c:e5:ac:6c:59:1d:11:
         83:1d:19:78:23:6b:39:14:60:17:3d:9f:2f:7d:d6:87:ae:7e:
         20:e2:45:02:22:79:1c:dd:d3:0f:f2:eb:30:1b:de:b9:30:15:
         45:14:2e:dd:44:68:62:9f:23:fb:21:ae:3d:7e:fb:b9:a6:f5:
         c0:01:4f:6b:0c:88:40:50:17:64:26:1e:ca:13:e5:a4:56:bb:
         4b:85:4c:c5:b0:71:71:d1:b8:65:c3:7f:fd:7c:e3:70:98:81:
         b3:1c:d4:04:6c:60:53:c4:4a:27:93:25:ec:13:7f:d9:67:84:
         20:de:88:d0:55:3b:63:16:5c:57:9e:1c:55:02:b4:db:dd:b0:
         f2:48:41:2e:bc:93:f1:e0:66:87:89:fb:10:69:23:ef:85:c1:
         7f:76:1f:f2:02:17:12:29:fc:3a:8e:e8:26:40:a6:57:f0:52:
         09:88:2a:8f:83:45:35:42:b8:34:10:c0:9d:50:94:b2:21:fe:
         25:24:d7:ab:06:08:11:38:80:6f:47:ff:e0:89:ab:bd:97:14:
         e5:85:f5:73:16:16:b1:b0:60:4f:a9:3b:48:bd:8e:70:17:5e:
         51:6f:63:b6:21:2c:bf:88:dc:a8:3d:21:ca:d0:23:ac:d3:41:
         bd:74:33:2b:6d:42:40:b8:62:c6:7e:c3:e1:0e:72:6d:45:98:
         5c:13:7b:44:0d:ca:35:d2:81:4c:2e:7c:26:72:50:22:3a:e5:
         d5:8a:6f:a8:f1:6f:ca:77
-----BEGIN CERTIFICATE-----
MIIE4jCCAsqgAwIBAgIBETANBgkqhkiG9w0BAQUFADCBhDELMAkGA1UEBhMCQkEx
CzAJBgNVBAgTAlJTMSEwHwYDVQQKExhFbGVrdHJvdGVobmlja2kgZmFrdWx0ZXQx
ETAPBgNVBAsUCENBX0VURkJMMRAwDgYDVQQDEwdyb290IGNhMSAwHgYJKoZIhvcN
AQkBFhFub3JlcGx5QGV0ZmJsLm5ldDAeFw0yMTAyMjAxOTI2NTBaFw0yMTAyMjEx
OTI2NTBaMIGoMQswCQYDVQQGEwJCQTELMAkGA1UECBMCUlMxITAfBgNVBAoTGEVs
ZWt0cm90ZWhuaWNraSBmYWt1bHRldDERMA8GA1UECxQIQ0FfRVRGQkwxDjAMBgNV
BAMTBXZsYWphMSUwIwYJKoZIhvcNAQkBFhZ2bGFqYS52bGFqaWNAZXRmYmwubmV0
MQ8wDQYDVQQEEwZWbGFqaWMxDjAMBgNVBCoTBVZsYWphMIGfMA0GCSqGSIb3DQEB
AQUAA4GNADCBiQKBgQDKGIXwpobngb4DIcCzv1bnmQ1WjaW45qEgyIErnlQNsOgF
UqKeMANvEtWBZY5rjxaut9peC9kHQSUiRrcYJtkaWWcJm+kKN8zQ1IQIj/A2qe1a
DgI/4OjWb5t/U+CgH50DMUa2v2ROYSoB3qMfnkXb7kKYsRRBN4t2kUjyS8wHQwID
AQABo4G8MIG5MAkGA1UdEwQCMAAwCwYDVR0PBAQDAgWgMCwGCWCGSAGG+EIBDQQf
Fh1PcGVuU1NMIEdlbmVyYXRlZCBDZXJ0aWZpY2F0ZTAdBgNVHQ4EFgQUHEX+5U86
q4N3VAeiiE9JeVL3uSAwHwYDVR0jBBgwFoAUgXUVYb0UXU2X4WwDDeWv7T3IAAQw
MQYDVR0fBCowKDAmoCSgIoYgaHR0cDovLzE5Mi4xNjguMjEuODkvcm9vdGNybC5w
ZW0wDQYJKoZIhvcNAQEFBQADggIBAGD204X/v/bHuUbd/EYRQx3IPOGwYCCgUh+j
0BsED+nM6auWWAqT8emEXfB1TI/PDDhgj0R0X2gvcY31X+uF/WoKeSLyIL/UFuts
KTrB1WjV+j0twvtL4TwkRhwFEJPUvHPu4FCy0R2/PgTnTzigOrE5vARdWE4iX+AZ
uktrx2+FSSlJhKGQCIh2UVofzjygr9YQlYBuNTpZoHdnaKul8jSFX2/oxk05HFfh
YiswA0jVbksQmaBENBp+YMnWFcOlKU/KMPBMHL9M1rqxXPussJAPvU1S6LbAQLyH
QzMComKNbFIoHOWsbFkdEYMdGXgjazkUYBc9ny991oeufiDiRQIieRzd0w/y6zAb
3rkwFUUULt1EaGKfI/shrj1++7mm9cABT2sMiEBQF2QmHsoT5aRWu0uFTMWwcXHR
uGXDf/1843CYgbMc1ARsYFPESieTJewTf9lnhCDeiNBVO2MWXFeeHFUCtNvdsPJI
QS68k/HgZoeJ+xBpI++FwX92H/ICFxIp/DqO6CZAplfwUgmIKo+DRTVCuDQQwJ1Q
lLIh/iUk16sGCBE4gG9H/+CJq72XFOWF9XMWFrGwYE+pO0i9jnAXXlFvY7YhLL+I
3Kg9IcrQI6zTQb10MyttQkC4YsZ+w+EOcm1FmFwTe0QNyjXSgUwufCZyUCI65dWK
b6jxb8p3
-----END CERTIFICATE-----
