Certificate:
    Data:
        Version: 3 (0x2)
        Serial Number: 22 (0x16)
        Signature Algorithm: sha1WithRSAEncryption
        Issuer: C=BA, ST=RS, O=Elektrotehnicki fakultet, OU=CA_ETFBL, CN=root ca/emailAddress=noreply@etfbl.net
        Validity
            Not Before: Feb 22 12:55:45 2021 GMT
            Not After : Feb 23 12:55:45 2021 GMT
        Subject: C=BA, ST=RS, O=Elektrotehnicki fakultet, OU=CA_ETFBL, CN=nikola/emailAddress=nikola.nikolic@etfbl.net, SN=Nikolic, GN=Nikola
        Subject Public Key Info:
            Public Key Algorithm: rsaEncryption
                RSA Public-Key: (2048 bit)
                Modulus:
                    00:d7:34:0a:af:77:64:6b:9f:1d:7c:8b:be:45:79:
                    88:43:a0:f9:5a:a3:1b:80:52:e0:3a:82:42:db:55:
                    8b:a5:19:d2:22:c6:c4:af:5f:c2:eb:c6:d8:9c:75:
                    29:b4:95:65:4d:37:51:e8:41:ca:2d:c9:7c:a4:75:
                    ec:8d:d3:13:59:b2:a1:5c:fe:84:3a:32:36:67:42:
                    7d:1c:74:a7:92:20:91:37:85:69:91:dc:58:26:31:
                    2d:ef:79:09:87:09:21:57:b4:19:94:6a:2e:23:e7:
                    5c:5f:78:47:40:58:bd:f9:34:d8:43:9c:6e:a9:3a:
                    06:b3:25:ef:f3:15:78:5b:da:e9:54:b3:79:fc:b1:
                    e4:1c:b0:b3:93:b2:a8:76:9d:e6:e4:14:7b:3c:f5:
                    16:ca:12:5a:4c:cb:8f:01:ad:24:36:cd:92:7b:00:
                    5c:2c:f7:d1:0c:6e:72:b6:4e:8e:53:9d:ac:d9:35:
                    ce:db:05:de:5b:52:3a:e7:cc:35:8c:b2:f5:0f:72:
                    3e:9a:a8:bc:db:cd:91:1b:c8:e4:74:fd:cf:e7:f1:
                    bc:d0:0d:ad:30:03:04:d4:cb:1f:95:fd:75:8d:ad:
                    1a:0c:1d:c5:be:66:a0:5b:44:f9:21:9f:d8:3d:cd:
                    4b:33:34:e4:14:92:27:f7:fc:bc:78:20:ae:49:ac:
                    15:b9
                Exponent: 65537 (0x10001)
        X509v3 extensions:
            X509v3 Basic Constraints: 
                CA:FALSE
            X509v3 Key Usage: 
                Digital Signature, Key Encipherment
            Netscape Comment: 
                OpenSSL Generated Certificate
            X509v3 Subject Key Identifier: 
                B8:74:59:BF:47:3F:55:29:25:00:B1:7C:6F:DD:40:EF:B9:A9:ED:A4
            X509v3 Authority Key Identifier: 
                keyid:81:75:15:61:BD:14:5D:4D:97:E1:6C:03:0D:E5:AF:ED:3D:C8:00:04

            X509v3 CRL Distribution Points: 

                Full Name:
                  URI:http://192.168.21.89/rootcrl.pem

    Signature Algorithm: sha1WithRSAEncryption
         77:6f:b3:79:46:13:19:72:22:3c:b9:44:57:f7:c5:3a:b0:d9:
         35:81:89:6a:44:16:01:b1:31:80:c0:8c:44:a1:28:02:d2:5c:
         15:df:72:9a:f0:8a:98:f2:dc:56:bf:28:73:58:89:90:c3:b5:
         a7:dd:53:03:62:d8:58:48:51:3a:6f:9c:c7:74:6c:fd:cb:dc:
         a9:23:a2:9c:29:4b:3d:8f:bb:7b:f0:d8:4f:af:b5:12:ce:63:
         2f:e9:7e:6c:dc:8f:56:52:30:40:3d:d2:ee:d5:56:de:a0:97:
         2d:99:f4:17:11:56:3b:db:76:63:ce:f6:73:c2:a6:7d:ce:c0:
         7a:09:c7:1c:45:d3:20:c1:2f:38:67:3d:f8:41:68:11:6f:27:
         f3:8f:25:bd:f1:c1:ae:77:7b:db:f0:e6:eb:0d:1a:93:97:8f:
         39:0d:27:34:75:bf:c2:11:49:af:40:c6:8b:b6:13:3e:41:c2:
         2f:ac:e5:16:3f:55:ec:34:f4:b2:f1:a6:09:59:65:0a:88:c6:
         8e:8b:15:73:52:df:5d:69:d0:12:9b:90:ac:3f:dd:70:c9:7d:
         6d:91:fc:cd:15:a1:a1:87:9c:13:c7:37:4a:be:4c:27:89:fd:
         81:83:62:39:aa:5f:62:f0:e2:a2:54:2e:16:1d:7b:86:fa:7e:
         b0:ee:6e:14:ae:d2:e2:0c:a4:c8:c5:91:2d:0d:c8:e2:cb:8f:
         19:4c:39:77:a4:b4:13:36:7b:f9:8a:68:de:a5:c1:8a:73:0d:
         8c:31:76:45:b5:ef:3a:b0:60:a5:8a:c1:37:15:89:24:22:f2:
         25:86:4e:39:9b:ab:f1:e7:c5:0c:a5:0d:cc:7a:da:43:7a:3c:
         ec:a6:8e:0a:d2:6d:28:7e:07:8b:fd:2a:45:7b:c6:33:4a:cf:
         51:86:49:10:35:d9:e4:12:36:b9:80:f1:59:59:06:2f:5c:b3:
         0b:5d:72:3c:c3:6e:6f:96:31:b2:b9:25:02:ba:c5:09:a1:de:
         1a:ec:87:d5:73:1e:7f:59:4f:6f:53:0b:59:f1:62:49:30:8b:
         78:91:8f:7d:1a:37:7a:2b:c8:77:70:15:5e:24:71:f3:7e:c3:
         5d:75:fc:e0:64:f7:d2:c6:2e:53:d9:f7:7c:94:e9:e1:ad:80:
         95:e6:42:e9:1e:fa:2e:42:0c:1e:96:2e:db:8d:aa:4d:db:ad:
         38:bc:c1:01:d7:0e:5c:d6:63:3a:2c:e1:3c:96:f8:c0:96:59:
         7d:b6:a1:4b:f3:bb:5d:d5:85:7f:9a:1e:24:28:53:7c:2d:00:
         87:94:24:e4:5d:c0:cd:52:28:3b:9c:dc:c1:d1:08:64:78:3e:
         87:85:ab:ad:0c:e5:80:3d
-----BEGIN CERTIFICATE-----
MIIFazCCA1OgAwIBAgIBFjANBgkqhkiG9w0BAQUFADCBhDELMAkGA1UEBhMCQkEx
CzAJBgNVBAgTAlJTMSEwHwYDVQQKExhFbGVrdHJvdGVobmlja2kgZmFrdWx0ZXQx
ETAPBgNVBAsUCENBX0VURkJMMRAwDgYDVQQDEwdyb290IGNhMSAwHgYJKoZIhvcN
AQkBFhFub3JlcGx5QGV0ZmJsLm5ldDAeFw0yMTAyMjIxMjU1NDVaFw0yMTAyMjMx
MjU1NDVaMIGtMQswCQYDVQQGEwJCQTELMAkGA1UECBMCUlMxITAfBgNVBAoTGEVs
ZWt0cm90ZWhuaWNraSBmYWt1bHRldDERMA8GA1UECxQIQ0FfRVRGQkwxDzANBgNV
BAMTBm5pa29sYTEnMCUGCSqGSIb3DQEJARYYbmlrb2xhLm5pa29saWNAZXRmYmwu
bmV0MRAwDgYDVQQEEwdOaWtvbGljMQ8wDQYDVQQqEwZOaWtvbGEwggEiMA0GCSqG
SIb3DQEBAQUAA4IBDwAwggEKAoIBAQDXNAqvd2Rrnx18i75FeYhDoPlaoxuAUuA6
gkLbVYulGdIixsSvX8LrxticdSm0lWVNN1HoQcotyXykdeyN0xNZsqFc/oQ6MjZn
Qn0cdKeSIJE3hWmR3FgmMS3veQmHCSFXtBmUai4j51xfeEdAWL35NNhDnG6pOgaz
Je/zFXhb2ulUs3n8seQcsLOTsqh2nebkFHs89RbKElpMy48BrSQ2zZJ7AFws99EM
bnK2To5TnazZNc7bBd5bUjrnzDWMsvUPcj6aqLzbzZEbyOR0/c/n8bzQDa0wAwTU
yx+V/XWNrRoMHcW+ZqBbRPkhn9g9zUszNOQUkif3/Lx4IK5JrBW5AgMBAAGjgbww
gbkwCQYDVR0TBAIwADALBgNVHQ8EBAMCBaAwLAYJYIZIAYb4QgENBB8WHU9wZW5T
U0wgR2VuZXJhdGVkIENlcnRpZmljYXRlMB0GA1UdDgQWBBS4dFm/Rz9VKSUAsXxv
3UDvuantpDAfBgNVHSMEGDAWgBSBdRVhvRRdTZfhbAMN5a/tPcgABDAxBgNVHR8E
KjAoMCagJKAihiBodHRwOi8vMTkyLjE2OC4yMS44OS9yb290Y3JsLnBlbTANBgkq
hkiG9w0BAQUFAAOCAgEAd2+zeUYTGXIiPLlEV/fFOrDZNYGJakQWAbExgMCMRKEo
AtJcFd9ymvCKmPLcVr8oc1iJkMO1p91TA2LYWEhROm+cx3Rs/cvcqSOinClLPY+7
e/DYT6+1Es5jL+l+bNyPVlIwQD3S7tVW3qCXLZn0FxFWO9t2Y872c8Kmfc7AegnH
HEXTIMEvOGc9+EFoEW8n848lvfHBrnd72/Dm6w0ak5ePOQ0nNHW/whFJr0DGi7YT
PkHCL6zlFj9V7DT0svGmCVllCojGjosVc1LfXWnQEpuQrD/dcMl9bZH8zRWhoYec
E8c3Sr5MJ4n9gYNiOapfYvDiolQuFh17hvp+sO5uFK7S4gykyMWRLQ3I4suPGUw5
d6S0EzZ7+Ypo3qXBinMNjDF2RbXvOrBgpYrBNxWJJCLyJYZOOZur8efFDKUNzHra
Q3o87KaOCtJtKH4Hi/0qRXvGM0rPUYZJEDXZ5BI2uYDxWVkGL1yzC11yPMNub5Yx
srklArrFCaHeGuyH1XMef1lPb1MLWfFiSTCLeJGPfRo3eivId3AVXiRx837DXXX8
4GT30sYuU9n3fJTp4a2AleZC6R76LkIMHpYu242qTdutOLzBAdcOXNZjOizhPJb4
wJZZfbahS/O7XdWFf5oeJChTfC0Ah5Qk5F3AzVIoO5zcwdEIZHg+h4WrrQzlgD0=
-----END CERTIFICATE-----
