Certificate:
    Data:
        Version: 3 (0x2)
        Serial Number: 18 (0x12)
        Signature Algorithm: sha1WithRSAEncryption
        Issuer: C=BA, ST=RS, O=Elektrotehnicki fakultet, OU=CA_ETFBL, CN=root ca/emailAddress=noreply@etfbl.net
        Validity
            Not Before: Feb 20 19:27:19 2021 GMT
            Not After : Feb 21 19:27:19 2021 GMT
        Subject: C=BA, ST=RS, O=Elektrotehnicki fakultet, OU=CA_ETFBL, CN=nikola/emailAddress=nikola.nikolic, SN=Nikolic, GN=Nikola
        Subject Public Key Info:
            Public Key Algorithm: rsaEncryption
                RSA Public-Key: (2048 bit)
                Modulus:
                    00:d7:34:0a:af:77:64:6b:9f:1d:7c:8b:be:45:79:
                    88:43:a0:f9:5a:a3:1b:80:52:e0:3a:82:42:db:55:
                    8b:a5:19:d2:22:c6:c4:af:5f:c2:eb:c6:d8:9c:75:
                    29:b4:95:65:4d:37:51:e8:41:ca:2d:c9:7c:a4:75:
                    ec:8d:d3:13:59:b2:a1:5c:fe:84:3a:32:36:67:42:
                    7d:1c:74:a7:92:20:91:37:85:69:91:dc:58:26:31:
                    2d:ef:79:09:87:09:21:57:b4:19:94:6a:2e:23:e7:
                    5c:5f:78:47:40:58:bd:f9:34:d8:43:9c:6e:a9:3a:
                    06:b3:25:ef:f3:15:78:5b:da:e9:54:b3:79:fc:b1:
                    e4:1c:b0:b3:93:b2:a8:76:9d:e6:e4:14:7b:3c:f5:
                    16:ca:12:5a:4c:cb:8f:01:ad:24:36:cd:92:7b:00:
                    5c:2c:f7:d1:0c:6e:72:b6:4e:8e:53:9d:ac:d9:35:
                    ce:db:05:de:5b:52:3a:e7:cc:35:8c:b2:f5:0f:72:
                    3e:9a:a8:bc:db:cd:91:1b:c8:e4:74:fd:cf:e7:f1:
                    bc:d0:0d:ad:30:03:04:d4:cb:1f:95:fd:75:8d:ad:
                    1a:0c:1d:c5:be:66:a0:5b:44:f9:21:9f:d8:3d:cd:
                    4b:33:34:e4:14:92:27:f7:fc:bc:78:20:ae:49:ac:
                    15:b9
                Exponent: 65537 (0x10001)
        X509v3 extensions:
            X509v3 Basic Constraints: 
                CA:FALSE
            X509v3 Key Usage: 
                Digital Signature, Key Encipherment
            Netscape Comment: 
                OpenSSL Generated Certificate
            X509v3 Subject Key Identifier: 
                B8:74:59:BF:47:3F:55:29:25:00:B1:7C:6F:DD:40:EF:B9:A9:ED:A4
            X509v3 Authority Key Identifier: 
                keyid:81:75:15:61:BD:14:5D:4D:97:E1:6C:03:0D:E5:AF:ED:3D:C8:00:04

            X509v3 CRL Distribution Points: 

                Full Name:
                  URI:http://192.168.21.89/rootcrl.pem

    Signature Algorithm: sha1WithRSAEncryption
         38:5d:a5:97:c4:09:29:a8:0f:75:00:fa:19:99:b9:42:ab:ec:
         f0:f5:79:00:8f:9c:95:f6:ab:b4:27:fe:c2:f6:82:56:30:f8:
         28:a3:21:c7:8a:be:61:71:a9:be:62:c2:20:65:61:5e:50:f3:
         e2:e7:b1:98:1d:4e:92:2e:7e:b1:4f:ef:f2:26:1e:7d:2d:96:
         7b:ba:83:89:6c:2e:13:29:16:c9:17:7a:11:93:ea:ff:0c:c4:
         a5:45:23:51:5f:d3:43:63:15:4f:98:ad:58:e0:20:03:1b:a8:
         38:16:09:22:30:aa:87:cb:ab:5b:46:9b:a6:57:f6:94:9f:c2:
         be:0c:37:7c:1a:2e:a6:6f:bb:1c:4f:04:2d:e8:11:f6:82:dc:
         9a:a4:e1:93:87:06:af:83:3f:3d:14:4f:dd:87:ee:0b:a4:58:
         b9:bc:c7:c6:72:6f:0b:20:af:66:a0:06:52:09:18:15:89:30:
         79:9c:8b:9b:d9:cf:24:bb:54:73:a7:ff:4d:97:6f:4f:61:1b:
         c9:b9:cf:ea:df:6d:b0:97:a9:e7:8b:48:8b:e9:d5:dd:07:de:
         29:bd:26:ed:3c:a3:bf:26:64:04:7e:16:01:89:06:67:bb:a4:
         56:55:87:70:bc:15:b5:c5:bf:f4:b2:49:82:cc:92:7d:a1:95:
         30:0a:1e:99:0c:ee:7d:46:f6:f3:1b:57:95:1f:c6:bc:96:26:
         df:ea:e1:74:d0:26:99:b4:f8:90:0d:bd:69:19:ae:8a:11:d3:
         24:60:ae:dc:a3:b5:ea:43:1b:9a:6f:8d:04:39:35:30:81:10:
         2d:da:f3:83:d0:fc:1b:fa:2a:15:62:87:d6:e3:38:e1:c4:c6:
         0f:11:e6:bf:33:c4:fd:11:5b:92:e3:9c:55:8d:5f:ea:c3:8f:
         b5:55:95:0d:45:c7:6a:1b:a9:38:45:f6:47:63:bd:b7:1c:52:
         ba:a8:54:b6:27:46:f1:e9:ec:11:16:1b:a0:ba:08:85:c9:e9:
         18:84:bb:4e:64:89:c5:ab:40:2c:12:fd:af:3b:e7:90:57:aa:
         44:6d:07:d7:c7:35:4b:ba:28:dd:83:07:b9:8e:1e:f3:f9:32:
         fe:f1:40:9f:ae:a5:fc:e4:52:04:1d:5a:2f:9c:5c:df:cd:d6:
         d4:8f:54:10:ff:4f:94:97:c9:a5:f8:27:c2:42:b0:94:6a:00:
         5f:8a:b3:bb:98:5e:07:b9:71:01:0e:b7:a6:ba:42:b4:31:c7:
         fa:7d:75:97:1b:32:2f:67:14:ea:1b:0b:3b:dd:f2:ac:ff:91:
         a5:85:f4:1b:ba:eb:0c:7f:10:77:e5:4a:8a:0b:44:87:25:a1:
         10:71:ed:b0:c9:92:c1:65
-----BEGIN CERTIFICATE-----
MIIFYTCCA0mgAwIBAgIBEjANBgkqhkiG9w0BAQUFADCBhDELMAkGA1UEBhMCQkEx
CzAJBgNVBAgTAlJTMSEwHwYDVQQKExhFbGVrdHJvdGVobmlja2kgZmFrdWx0ZXQx
ETAPBgNVBAsUCENBX0VURkJMMRAwDgYDVQQDEwdyb290IGNhMSAwHgYJKoZIhvcN
AQkBFhFub3JlcGx5QGV0ZmJsLm5ldDAeFw0yMTAyMjAxOTI3MTlaFw0yMTAyMjEx
OTI3MTlaMIGjMQswCQYDVQQGEwJCQTELMAkGA1UECBMCUlMxITAfBgNVBAoTGEVs
ZWt0cm90ZWhuaWNraSBmYWt1bHRldDERMA8GA1UECxQIQ0FfRVRGQkwxDzANBgNV
BAMTBm5pa29sYTEdMBsGCSqGSIb3DQEJARYObmlrb2xhLm5pa29saWMxEDAOBgNV
BAQTB05pa29saWMxDzANBgNVBCoTBk5pa29sYTCCASIwDQYJKoZIhvcNAQEBBQAD
ggEPADCCAQoCggEBANc0Cq93ZGufHXyLvkV5iEOg+VqjG4BS4DqCQttVi6UZ0iLG
xK9fwuvG2Jx1KbSVZU03UehByi3JfKR17I3TE1myoVz+hDoyNmdCfRx0p5IgkTeF
aZHcWCYxLe95CYcJIVe0GZRqLiPnXF94R0BYvfk02EOcbqk6BrMl7/MVeFva6VSz
efyx5Byws5OyqHad5uQUezz1FsoSWkzLjwGtJDbNknsAXCz30QxucrZOjlOdrNk1
ztsF3ltSOufMNYyy9Q9yPpqovNvNkRvI5HT9z+fxvNANrTADBNTLH5X9dY2tGgwd
xb5moFtE+SGf2D3NSzM05BSSJ/f8vHggrkmsFbkCAwEAAaOBvDCBuTAJBgNVHRME
AjAAMAsGA1UdDwQEAwIFoDAsBglghkgBhvhCAQ0EHxYdT3BlblNTTCBHZW5lcmF0
ZWQgQ2VydGlmaWNhdGUwHQYDVR0OBBYEFLh0Wb9HP1UpJQCxfG/dQO+5qe2kMB8G
A1UdIwQYMBaAFIF1FWG9FF1Nl+FsAw3lr+09yAAEMDEGA1UdHwQqMCgwJqAkoCKG
IGh0dHA6Ly8xOTIuMTY4LjIxLjg5L3Jvb3RjcmwucGVtMA0GCSqGSIb3DQEBBQUA
A4ICAQA4XaWXxAkpqA91APoZmblCq+zw9XkAj5yV9qu0J/7C9oJWMPgooyHHir5h
cam+YsIgZWFeUPPi57GYHU6SLn6xT+/yJh59LZZ7uoOJbC4TKRbJF3oRk+r/DMSl
RSNRX9NDYxVPmK1Y4CADG6g4FgkiMKqHy6tbRpumV/aUn8K+DDd8Gi6mb7scTwQt
6BH2gtyapOGThwavgz89FE/dh+4LpFi5vMfGcm8LIK9moAZSCRgViTB5nIub2c8k
u1Rzp/9Nl29PYRvJuc/q322wl6nni0iL6dXdB94pvSbtPKO/JmQEfhYBiQZnu6RW
VYdwvBW1xb/0skmCzJJ9oZUwCh6ZDO59RvbzG1eVH8a8libf6uF00CaZtPiQDb1p
Ga6KEdMkYK7co7XqQxuab40EOTUwgRAt2vOD0Pwb+ioVYofW4zjhxMYPEea/M8T9
EVuS45xVjV/qw4+1VZUNRcdqG6k4RfZHY723HFK6qFS2J0bx6ewRFhugugiFyekY
hLtOZInFq0AsEv2vO+eQV6pEbQfXxzVLuijdgwe5jh7z+TL+8UCfrqX85FIEHVov
nFzfzdbUj1QQ/0+Ul8ml+CfCQrCUagBfirO7mF4HuXEBDremukK0Mcf6fXWXGzIv
ZxTqGws73fKs/5GlhfQbuusMfxB35UqKC0SHJaEQce2wyZLBZQ==
-----END CERTIFICATE-----
