Certificate:
    Data:
        Version: 3 (0x2)
        Serial Number: 19 (0x13)
        Signature Algorithm: sha1WithRSAEncryption
        Issuer: C=BA, ST=RS, O=Elektrotehnicki fakultet, OU=CA_ETFBL, CN=root 2/emailAddress=root2@etfbl.net
        Validity
            Not Before: Feb 22 12:37:41 2021 GMT
            Not After : Feb 22 12:37:41 2022 GMT
        Subject: C=BA, ST=RS, O=Elektrotehnicki fakultet, OU=CA_ETFBL, CN=jovan/emailAddress=jovan.jovic@etfbl.net, SN=Jovic, GN=Jovan
        Subject Public Key Info:
            Public Key Algorithm: rsaEncryption
                RSA Public-Key: (2048 bit)
                Modulus:
                    00:ac:8d:75:88:54:d9:84:d9:15:2e:78:56:21:04:
                    9c:79:f5:53:e0:8b:bc:d6:02:cc:1a:36:c9:05:21:
                    82:de:0c:c5:55:f3:c2:37:6e:e1:11:d5:62:89:f9:
                    8b:a1:ae:5b:ed:b0:5a:c4:52:52:c3:df:e7:eb:a2:
                    19:e0:3c:85:8c:ec:60:8a:63:5d:47:86:38:97:74:
                    2d:9d:b0:c3:aa:f8:2e:ab:0a:ae:9d:fe:64:1b:ab:
                    ff:1c:22:a0:2e:50:0b:e8:d8:f2:e8:fe:ec:40:36:
                    2b:06:af:f1:67:0f:5a:f7:3f:a6:70:e2:cd:6e:9f:
                    cd:42:32:f0:e3:7d:3d:b9:9a:a5:5c:cd:f3:ba:c5:
                    b6:84:36:68:b6:60:4c:80:d7:0e:37:36:90:f2:71:
                    68:36:f9:5d:86:15:c4:60:89:c2:bc:a1:39:18:39:
                    a9:fc:6e:b2:77:e3:ed:e3:86:5f:5c:d4:e3:29:46:
                    1a:57:6f:39:34:00:6e:9c:f4:0f:20:54:b6:9d:c4:
                    44:56:ca:bd:e0:03:1e:12:57:a5:63:8f:25:1c:b7:
                    23:85:10:ac:31:3a:78:26:b7:fe:99:39:b9:bf:d7:
                    9a:f5:ec:db:2f:69:fa:42:c1:ac:97:f8:aa:83:26:
                    21:b2:93:59:36:4f:cf:5d:c1:f9:1c:e4:2e:53:3f:
                    97:29
                Exponent: 65537 (0x10001)
        X509v3 extensions:
            X509v3 Basic Constraints: 
                CA:FALSE
            X509v3 Key Usage: 
                Digital Signature, Key Encipherment
            Netscape Comment: 
                OpenSSL Generated Certificate
            X509v3 Subject Key Identifier: 
                AF:07:A3:3A:7E:2C:24:DA:DC:78:24:35:0E:5E:BA:A5:24:4F:4C:A1
            X509v3 Authority Key Identifier: 
                keyid:C7:82:06:C3:3C:FA:B3:09:9D:08:91:53:F7:8F:69:FA:99:08:A6:F6

            X509v3 CRL Distribution Points: 

                Full Name:
                  URI:http://192.168.21.89/rootcrl.pem

    Signature Algorithm: sha1WithRSAEncryption
         6e:c3:d3:e4:3d:2a:ca:bf:31:0b:9f:ea:2c:df:fa:0f:d0:2f:
         b0:18:c8:a7:22:27:b5:bb:86:73:ff:0e:3e:f0:04:d4:8b:6c:
         a6:9d:e1:47:33:21:9f:67:46:68:a8:a6:a7:ae:93:bf:b0:b4:
         51:ad:c6:17:f3:37:cb:f2:19:7a:51:9e:18:57:a7:7e:e5:ae:
         ae:8f:03:d7:08:ae:31:58:78:3d:dc:ff:53:81:32:1f:0e:a0:
         8f:13:1e:5a:0a:12:f8:3a:bc:01:ae:46:2e:83:20:2f:64:20:
         35:43:8a:0c:56:f7:4d:5b:c8:41:67:78:71:6d:e9:08:f5:5e:
         7b:07:d6:ac:6c:7b:ff:40:22:81:71:30:6e:43:3d:f4:86:f6:
         aa:07:7f:c3:f2:9b:24:b0:6e:b8:b8:a9:c8:ab:59:b9:60:3a:
         3b:0c:93:c8:13:bd:45:96:d0:76:dd:f8:4e:16:ac:af:bd:44:
         a2:f9:ca:e3:2e:46:0d:b6:98:57:5e:d6:c4:5a:51:fa:9b:bb:
         d8:a0:c2:12:e2:3f:3c:bb:2f:a6:28:0c:b9:bf:b5:80:d5:99:
         da:b3:07:09:3a:8c:22:80:2d:68:5f:be:41:c8:01:8d:cd:b4:
         f7:dd:7c:6b:dd:91:f1:79:ce:d9:b1:02:24:45:c2:a7:f0:73:
         eb:6b:a0:95
-----BEGIN CERTIFICATE-----
MIIEYTCCA0mgAwIBAgIBEzANBgkqhkiG9w0BAQUFADCBgTELMAkGA1UEBhMCQkEx
CzAJBgNVBAgTAlJTMSEwHwYDVQQKExhFbGVrdHJvdGVobmlja2kgZmFrdWx0ZXQx
ETAPBgNVBAsUCENBX0VURkJMMQ8wDQYDVQQDEwZyb290IDIxHjAcBgkqhkiG9w0B
CQEWD3Jvb3QyQGV0ZmJsLm5ldDAeFw0yMTAyMjIxMjM3NDFaFw0yMjAyMjIxMjM3
NDFaMIGmMQswCQYDVQQGEwJCQTELMAkGA1UECBMCUlMxITAfBgNVBAoTGEVsZWt0
cm90ZWhuaWNraSBmYWt1bHRldDERMA8GA1UECxQIQ0FfRVRGQkwxDjAMBgNVBAMT
BWpvdmFuMSQwIgYJKoZIhvcNAQkBFhVqb3Zhbi5qb3ZpY0BldGZibC5uZXQxDjAM
BgNVBAQTBUpvdmljMQ4wDAYDVQQqEwVKb3ZhbjCCASIwDQYJKoZIhvcNAQEBBQAD
ggEPADCCAQoCggEBAKyNdYhU2YTZFS54ViEEnHn1U+CLvNYCzBo2yQUhgt4MxVXz
wjdu4RHVYon5i6GuW+2wWsRSUsPf5+uiGeA8hYzsYIpjXUeGOJd0LZ2ww6r4LqsK
rp3+ZBur/xwioC5QC+jY8uj+7EA2Kwav8WcPWvc/pnDizW6fzUIy8ON9PbmapVzN
87rFtoQ2aLZgTIDXDjc2kPJxaDb5XYYVxGCJwryhORg5qfxusnfj7eOGX1zU4ylG
GldvOTQAbpz0DyBUtp3ERFbKveADHhJXpWOPJRy3I4UQrDE6eCa3/pk5ub/XmvXs
2y9p+kLBrJf4qoMmIbKTWTZPz13B+RzkLlM/lykCAwEAAaOBvDCBuTAJBgNVHRME
AjAAMAsGA1UdDwQEAwIFoDAsBglghkgBhvhCAQ0EHxYdT3BlblNTTCBHZW5lcmF0
ZWQgQ2VydGlmaWNhdGUwHQYDVR0OBBYEFK8Hozp+LCTa3HgkNQ5euqUkT0yhMB8G
A1UdIwQYMBaAFMeCBsM8+rMJnQiRU/ePafqZCKb2MDEGA1UdHwQqMCgwJqAkoCKG
IGh0dHA6Ly8xOTIuMTY4LjIxLjg5L3Jvb3RjcmwucGVtMA0GCSqGSIb3DQEBBQUA
A4IBAQBuw9PkPSrKvzELn+os3/oP0C+wGMinIie1u4Zz/w4+8ATUi2ymneFHMyGf
Z0ZoqKanrpO/sLRRrcYX8zfL8hl6UZ4YV6d+5a6ujwPXCK4xWHg93P9TgTIfDqCP
Ex5aChL4OrwBrkYugyAvZCA1Q4oMVvdNW8hBZ3hxbekI9V57B9asbHv/QCKBcTBu
Qz30hvaqB3/D8psksG64uKnIq1m5YDo7DJPIE71FltB23fhOFqyvvUSi+crjLkYN
tphXXtbEWlH6m7vYoMIS4j88uy+mKAy5v7WA1ZnaswcJOowigC1oX75ByAGNzbT3
3Xxr3ZHxec7ZsQIkRcKn8HPra6CV
-----END CERTIFICATE-----
