Certificate:
    Data:
        Version: 3 (0x2)
        Serial Number: 2 (0x2)
        Signature Algorithm: sha1WithRSAEncryption
        Issuer: C=BA, ST=RS, O=Elektrotehnicki fakultet, OU=CA_ETFBL, CN=root ca/emailAddress=noreply@etfbl.net
        Validity
            Not Before: Jan 10 16:07:42 2021 GMT
            Not After : Jan 10 16:07:42 2022 GMT
        Subject: C=BA, ST=RS, O=Elektrotehnicki fakultet, OU=CA_ETFBL, CN=marko/emailAddress=marko.markovic@etfbl.net, SN=Markovic, GN=Marko
        Subject Public Key Info:
            Public Key Algorithm: rsaEncryption
                RSA Public-Key: (2048 bit)
                Modulus:
                    00:b8:34:38:12:3c:e2:75:16:ed:1b:3f:47:c9:6f:
                    16:4f:e0:df:e6:54:fa:e1:87:7d:b4:34:12:39:77:
                    73:f5:aa:b9:2b:0b:9e:6d:cc:17:1b:50:db:42:1e:
                    98:11:cd:4e:87:12:93:bb:0c:f7:32:58:c9:52:1f:
                    5f:ba:96:bc:76:d5:3e:1b:0a:f2:78:da:88:c4:41:
                    f5:92:dd:e7:69:d8:37:41:0a:4c:fc:f2:49:07:cf:
                    84:89:cd:1b:bb:e4:2f:bf:d7:94:ff:32:83:d9:ee:
                    39:e3:8f:41:e8:7a:b0:d6:e6:67:66:90:7b:7e:04:
                    e4:f5:bc:66:28:56:da:ac:77:30:1c:e7:99:5f:88:
                    be:ed:c1:c9:b4:55:70:12:ac:80:8b:09:0c:42:8f:
                    ef:2c:31:56:70:a4:7d:77:e6:a8:fc:bf:db:66:64:
                    4b:37:c8:34:41:c3:70:3c:77:bf:14:7f:9f:0e:5b:
                    aa:bf:01:32:d3:74:51:84:9d:74:8e:d7:f5:db:a8:
                    39:4a:8d:69:09:a1:0e:1a:33:89:bf:1a:84:d2:29:
                    3f:0c:54:72:f1:0f:18:23:96:fa:9e:0d:3b:13:77:
                    7f:ec:ab:e7:7e:82:69:bb:08:24:db:45:b8:87:c8:
                    e1:05:f1:b4:ca:e9:ef:37:e5:bf:18:98:89:50:ac:
                    0d:b5
                Exponent: 65537 (0x10001)
        X509v3 extensions:
            X509v3 Basic Constraints: 
                CA:FALSE
            X509v3 Key Usage: 
                Digital Signature, Key Encipherment
            Netscape Comment: 
                OpenSSL Generated Certificate
            X509v3 Subject Key Identifier: 
                ED:A9:C1:A2:20:67:2A:3B:32:CF:C6:39:C3:48:10:41:CD:33:90:5B
            X509v3 Authority Key Identifier: 
                keyid:81:75:15:61:BD:14:5D:4D:97:E1:6C:03:0D:E5:AF:ED:3D:C8:00:04

            X509v3 CRL Distribution Points: 

                Full Name:
                  URI:http://192.168.21.89/rootcrl.pem

    Signature Algorithm: sha1WithRSAEncryption
         5e:9c:1e:83:a7:cb:7f:e8:3d:5c:0b:40:33:f5:17:88:3f:8c:
         14:c6:af:5d:b0:10:99:30:ba:81:ed:3a:82:f6:6f:50:c8:4f:
         08:9c:32:55:e2:f2:a9:db:79:fb:bf:be:2a:27:89:03:7b:3c:
         c2:5b:0c:3b:39:63:3c:aa:df:5d:83:51:d4:e0:4a:a1:55:aa:
         25:b0:7a:29:5c:05:a8:0d:e9:31:82:81:c4:1d:bc:58:9a:5a:
         b9:2c:fd:a7:37:92:f1:de:f7:92:20:be:d7:ea:7e:9e:e0:a9:
         05:66:d3:1f:40:7a:94:49:69:c4:1c:bf:e1:71:cd:91:fb:70:
         eb:73:65:57:3b:e1:be:57:f4:bd:1c:1c:d4:d0:63:48:e3:16:
         3d:56:9f:26:33:97:95:b1:e2:b0:19:00:be:cf:8e:56:2e:ba:
         13:1a:03:70:06:67:47:a7:04:06:49:d5:37:9d:8a:2b:7d:06:
         d7:f2:5e:0f:77:aa:01:dc:8e:ff:e4:d4:79:d4:1f:91:e1:47:
         95:89:4a:21:f0:de:3f:dd:7e:c6:5c:d2:83:18:f2:68:b8:cc:
         ec:ce:bb:d5:54:93:51:72:5e:2c:75:81:e9:87:a7:fc:75:25:
         0d:fa:90:3f:67:79:ee:ee:98:e7:da:16:c5:2c:1f:50:f9:bb:
         cb:b5:b1:f2:31:7e:a7:f0:6e:d2:1d:84:d4:8c:7c:9e:e0:34:
         8c:14:e1:0b:49:91:62:05:44:04:ef:1a:5f:51:e6:9a:09:16:
         83:87:f1:9b:a7:c4:ad:e7:9e:f2:d9:04:61:e1:ce:94:8a:ce:
         7a:67:3e:df:b2:1a:7b:a7:a5:37:8a:dc:8f:30:6b:73:fb:5b:
         76:e3:c9:f0:a3:ec:fd:83:6c:c2:5d:b7:10:d1:59:21:ba:cb:
         aa:9f:ff:5a:9f:71:75:23:a0:75:0c:c5:95:6f:ae:78:27:ee:
         b2:3a:0d:6a:0d:ab:50:a3:a2:c3:da:6c:0c:95:d0:e6:e6:99:
         99:d0:a8:e1:a6:81:fa:6f:3b:a7:d9:6a:65:6a:5c:b0:4b:c9:
         af:10:7d:b1:f7:84:59:ad:15:82:cd:3b:49:87:f5:0d:19:1d:
         16:6b:54:15:f2:76:00:e7:19:9f:56:85:b6:22:21:17:cc:da:
         7f:98:46:0d:62:92:ea:26:8e:91:98:64:50:25:89:86:09:5b:
         d4:3c:7f:a4:4d:b8:76:8b:5e:d6:7e:35:e8:d2:76:d1:08:86:
         d6:93:7b:47:18:13:db:49:e4:ce:67:d1:7a:37:8c:0e:a4:6b:
         25:42:ab:08:c7:c0:f6:5f:a0:28:d2:fd:94:98:ce:42:ed:cd:
         b2:64:15:7b:57:80:b4:63
-----BEGIN CERTIFICATE-----
MIIFajCCA1KgAwIBAgIBAjANBgkqhkiG9w0BAQUFADCBhDELMAkGA1UEBhMCQkEx
CzAJBgNVBAgTAlJTMSEwHwYDVQQKExhFbGVrdHJvdGVobmlja2kgZmFrdWx0ZXQx
ETAPBgNVBAsUCENBX0VURkJMMRAwDgYDVQQDEwdyb290IGNhMSAwHgYJKoZIhvcN
AQkBFhFub3JlcGx5QGV0ZmJsLm5ldDAeFw0yMTAxMTAxNjA3NDJaFw0yMjAxMTAx
NjA3NDJaMIGsMQswCQYDVQQGEwJCQTELMAkGA1UECBMCUlMxITAfBgNVBAoTGEVs
ZWt0cm90ZWhuaWNraSBmYWt1bHRldDERMA8GA1UECxQIQ0FfRVRGQkwxDjAMBgNV
BAMTBW1hcmtvMScwJQYJKoZIhvcNAQkBFhhtYXJrby5tYXJrb3ZpY0BldGZibC5u
ZXQxETAPBgNVBAQTCE1hcmtvdmljMQ4wDAYDVQQqEwVNYXJrbzCCASIwDQYJKoZI
hvcNAQEBBQADggEPADCCAQoCggEBALg0OBI84nUW7Rs/R8lvFk/g3+ZU+uGHfbQ0
Ejl3c/WquSsLnm3MFxtQ20IemBHNTocSk7sM9zJYyVIfX7qWvHbVPhsK8njaiMRB
9ZLd52nYN0EKTPzySQfPhInNG7vkL7/XlP8yg9nuOeOPQeh6sNbmZ2aQe34E5PW8
ZihW2qx3MBznmV+Ivu3BybRVcBKsgIsJDEKP7ywxVnCkfXfmqPy/22ZkSzfINEHD
cDx3vxR/nw5bqr8BMtN0UYSddI7X9duoOUqNaQmhDhozib8ahNIpPwxUcvEPGCOW
+p4NOxN3f+yr536CabsIJNtFuIfI4QXxtMrp7zflvxiYiVCsDbUCAwEAAaOBvDCB
uTAJBgNVHRMEAjAAMAsGA1UdDwQEAwIFoDAsBglghkgBhvhCAQ0EHxYdT3BlblNT
TCBHZW5lcmF0ZWQgQ2VydGlmaWNhdGUwHQYDVR0OBBYEFO2pwaIgZyo7Ms/GOcNI
EEHNM5BbMB8GA1UdIwQYMBaAFIF1FWG9FF1Nl+FsAw3lr+09yAAEMDEGA1UdHwQq
MCgwJqAkoCKGIGh0dHA6Ly8xOTIuMTY4LjIxLjg5L3Jvb3RjcmwucGVtMA0GCSqG
SIb3DQEBBQUAA4ICAQBenB6Dp8t/6D1cC0Az9ReIP4wUxq9dsBCZMLqB7TqC9m9Q
yE8InDJV4vKp23n7v74qJ4kDezzCWww7OWM8qt9dg1HU4EqhVaolsHopXAWoDekx
goHEHbxYmlq5LP2nN5Lx3veSIL7X6n6e4KkFZtMfQHqUSWnEHL/hcc2R+3Drc2VX
O+G+V/S9HBzU0GNI4xY9Vp8mM5eVseKwGQC+z45WLroTGgNwBmdHpwQGSdU3nYor
fQbX8l4Pd6oB3I7/5NR51B+R4UeViUoh8N4/3X7GXNKDGPJouMzszrvVVJNRcl4s
dYHph6f8dSUN+pA/Z3nu7pjn2hbFLB9Q+bvLtbHyMX6n8G7SHYTUjHye4DSMFOEL
SZFiBUQE7xpfUeaaCRaDh/Gbp8St557y2QRh4c6Uis56Zz7fshp7p6U3ityPMGtz
+1t248nwo+z9g2zCXbcQ0Vkhusuqn/9an3F1I6B1DMWVb654J+6yOg1qDatQo6LD
2mwMldDm5pmZ0KjhpoH6bzun2WplalywS8mvEH2x94RZrRWCzTtJh/UNGR0Wa1QV
8nYA5xmfVoW2IiEXzNp/mEYNYpLqJo6RmGRQJYmGCVvUPH+kTbh2i17WfjXo0nbR
CIbWk3tHGBPbSeTOZ9F6N4wOpGslQqsIx8D2X6Ao0v2UmM5C7c2yZBV7V4C0Yw==
-----END CERTIFICATE-----
