Certificate:
    Data:
        Version: 3 (0x2)
        Serial Number: 4 (0x4)
        Signature Algorithm: sha1WithRSAEncryption
        Issuer: C=BA, ST=RS, O=Elektrotehnicki fakultet, OU=CA_ETFBL, CN=root ca/emailAddress=noreply@etfbl.net
        Validity
            Not Before: Jan 10 16:07:45 2021 GMT
            Not After : Jan 10 16:07:45 2022 GMT
        Subject: C=BA, ST=RS, O=Elektrotehnicki fakultet, OU=CA_ETFBL, CN=stefan/emailAddress=stefan.stefic@etfbl.net, SN=Stefic, GN=Stefan
        Subject Public Key Info:
            Public Key Algorithm: rsaEncryption
                RSA Public-Key: (2048 bit)
                Modulus:
                    00:af:a3:03:60:5d:5f:18:5f:da:19:b2:a8:de:4d:
                    2c:6b:58:98:8f:5a:99:9d:ef:aa:f7:02:9b:81:2f:
                    92:c4:1a:f1:54:22:26:3a:54:f3:7d:f7:6f:74:f9:
                    a6:ae:89:e5:c9:44:4f:34:ff:84:73:65:06:50:85:
                    cb:2a:9f:4c:f0:bd:74:eb:0c:b2:97:3e:75:5f:92:
                    99:68:2d:b3:b8:96:e3:61:a1:f6:56:60:61:85:a1:
                    67:a2:3c:a1:74:94:56:16:18:62:c0:ff:05:6c:c8:
                    f0:0f:cc:b9:67:24:2e:ff:5f:b6:a2:9e:12:98:1f:
                    a4:c2:73:3a:01:79:ef:d8:20:b3:3f:ed:52:d7:8d:
                    cb:2e:28:0b:ba:2f:7c:91:8c:fc:3c:42:c0:37:9b:
                    2c:07:4d:7d:05:6d:29:06:8d:a6:98:3c:3f:da:16:
                    42:f8:1b:99:66:4f:72:6c:4d:da:e9:5d:fa:0f:7b:
                    2d:2f:31:5f:e3:df:bd:f7:b0:59:0a:e1:15:11:eb:
                    0b:84:48:a2:33:12:f9:fc:da:09:5e:78:13:e0:71:
                    6f:c9:bf:8c:65:42:b4:3a:14:7f:60:31:eb:7e:cb:
                    12:3f:dd:c2:a6:f2:a2:2a:f5:5b:3a:8d:97:7a:5a:
                    5e:c7:e2:a1:67:01:ce:99:35:ed:f0:f9:4e:53:ca:
                    9d:57
                Exponent: 65537 (0x10001)
        X509v3 extensions:
            X509v3 Basic Constraints: 
                CA:FALSE
            X509v3 Key Usage: 
                Digital Signature, Key Encipherment
            Netscape Comment: 
                OpenSSL Generated Certificate
            X509v3 Subject Key Identifier: 
                28:95:0F:4A:AB:9A:04:3C:DB:F5:27:6B:D7:39:84:8A:D7:89:F9:81
            X509v3 Authority Key Identifier: 
                keyid:81:75:15:61:BD:14:5D:4D:97:E1:6C:03:0D:E5:AF:ED:3D:C8:00:04

            X509v3 CRL Distribution Points: 

                Full Name:
                  URI:http://192.168.21.89/rootcrl.pem

    Signature Algorithm: sha1WithRSAEncryption
         a7:4f:e5:1e:d6:2a:c6:93:47:5d:97:9f:25:b2:e9:7d:07:db:
         eb:5f:8a:c9:65:03:cc:3d:70:93:7b:9d:e9:09:28:ba:2c:9a:
         21:e9:0a:ea:f0:02:ff:ef:e7:83:32:e2:0f:3c:0f:7b:af:a4:
         15:c5:86:e8:54:13:3b:49:0a:21:ab:9e:09:e6:4e:af:71:c3:
         8c:15:3a:52:6f:f4:03:39:9a:e4:28:43:4f:d8:c5:04:43:8a:
         59:61:5a:72:29:9c:a1:d1:b9:18:b6:7d:11:72:4f:84:e4:b3:
         45:63:83:28:77:cb:ba:2a:95:e1:20:89:bc:25:2e:14:f4:dc:
         aa:ea:a0:66:86:1a:75:cb:be:10:6a:03:13:09:1a:bb:03:47:
         66:0c:7d:c9:4f:ae:8f:54:16:b8:98:f3:eb:b3:45:ff:8f:96:
         ad:de:e0:e5:68:77:a7:ed:20:51:ee:6a:02:55:ab:3f:41:5a:
         45:ea:b2:2a:a0:68:0f:b0:05:c5:a8:9d:a2:e9:6e:d0:f3:74:
         02:4c:64:1b:85:29:78:f0:09:1a:b2:24:6b:cc:c2:e4:d2:d8:
         1a:b9:bc:e4:30:0c:76:a9:c3:01:6a:cb:7e:14:07:d3:fd:2f:
         a0:5a:ae:55:a0:06:c9:73:4b:37:cd:55:f3:2a:fc:87:78:bb:
         cf:97:6b:e9:03:22:fe:51:d7:4f:62:43:4a:3e:e1:47:6d:59:
         ed:f3:84:c4:ec:33:bb:28:ac:5f:38:71:a1:a1:51:7e:20:5a:
         5c:09:83:87:3e:a8:3a:97:cf:40:c0:f1:05:d8:d2:eb:a1:11:
         4a:47:c4:cd:ba:9d:da:dd:1e:fb:2e:f2:da:c9:c6:12:af:42:
         2a:90:97:c8:6c:2f:24:9f:a7:6e:e4:ee:8a:b2:34:ea:86:c1:
         53:9b:bf:36:fc:c5:f5:bb:cf:9e:85:13:78:02:b2:2a:99:7d:
         e3:b3:7a:39:1a:d6:43:95:8e:9c:ae:63:f6:25:0e:b3:56:45:
         39:d3:9e:0b:f6:b2:a3:50:4b:f6:b8:47:be:55:84:1f:00:0d:
         74:2e:0d:a9:05:7f:d9:e4:4a:e7:bb:c4:bc:b9:d0:2c:a6:e4:
         6a:27:42:1b:00:5b:1b:79:b9:ea:5e:36:0c:7f:22:b7:f8:9d:
         bd:12:cb:79:de:66:03:5d:1c:75:1c:c8:d0:e1:0a:d7:f8:6d:
         e8:99:51:0c:cc:f0:cc:b9:04:15:6f:1a:ea:44:83:68:de:6e:
         c4:6c:3e:3e:15:b7:5c:39:48:b4:34:ce:21:c3:61:ce:a7:58:
         e0:67:ad:9c:45:a3:b8:4d:20:86:46:44:04:e3:16:71:72:af:
         cc:ae:e2:99:d7:bb:86:7a
-----BEGIN CERTIFICATE-----
MIIFaTCCA1GgAwIBAgIBBDANBgkqhkiG9w0BAQUFADCBhDELMAkGA1UEBhMCQkEx
CzAJBgNVBAgTAlJTMSEwHwYDVQQKExhFbGVrdHJvdGVobmlja2kgZmFrdWx0ZXQx
ETAPBgNVBAsUCENBX0VURkJMMRAwDgYDVQQDEwdyb290IGNhMSAwHgYJKoZIhvcN
AQkBFhFub3JlcGx5QGV0ZmJsLm5ldDAeFw0yMTAxMTAxNjA3NDVaFw0yMjAxMTAx
NjA3NDVaMIGrMQswCQYDVQQGEwJCQTELMAkGA1UECBMCUlMxITAfBgNVBAoTGEVs
ZWt0cm90ZWhuaWNraSBmYWt1bHRldDERMA8GA1UECxQIQ0FfRVRGQkwxDzANBgNV
BAMTBnN0ZWZhbjEmMCQGCSqGSIb3DQEJARYXc3RlZmFuLnN0ZWZpY0BldGZibC5u
ZXQxDzANBgNVBAQTBlN0ZWZpYzEPMA0GA1UEKhMGU3RlZmFuMIIBIjANBgkqhkiG
9w0BAQEFAAOCAQ8AMIIBCgKCAQEAr6MDYF1fGF/aGbKo3k0sa1iYj1qZne+q9wKb
gS+SxBrxVCImOlTzffdvdPmmronlyURPNP+Ec2UGUIXLKp9M8L106wyylz51X5KZ
aC2zuJbjYaH2VmBhhaFnojyhdJRWFhhiwP8FbMjwD8y5ZyQu/1+2op4SmB+kwnM6
AXnv2CCzP+1S143LLigLui98kYz8PELAN5ssB019BW0pBo2mmDw/2hZC+BuZZk9y
bE3a6V36D3stLzFf49+997BZCuEVEesLhEiiMxL5/NoJXngT4HFvyb+MZUK0OhR/
YDHrfssSP93CpvKiKvVbOo2Xelpex+KhZwHOmTXt8PlOU8qdVwIDAQABo4G8MIG5
MAkGA1UdEwQCMAAwCwYDVR0PBAQDAgWgMCwGCWCGSAGG+EIBDQQfFh1PcGVuU1NM
IEdlbmVyYXRlZCBDZXJ0aWZpY2F0ZTAdBgNVHQ4EFgQUKJUPSquaBDzb9Sdr1zmE
iteJ+YEwHwYDVR0jBBgwFoAUgXUVYb0UXU2X4WwDDeWv7T3IAAQwMQYDVR0fBCow
KDAmoCSgIoYgaHR0cDovLzE5Mi4xNjguMjEuODkvcm9vdGNybC5wZW0wDQYJKoZI
hvcNAQEFBQADggIBAKdP5R7WKsaTR12XnyWy6X0H2+tfisllA8w9cJN7nekJKLos
miHpCurwAv/v54My4g88D3uvpBXFhuhUEztJCiGrngnmTq9xw4wVOlJv9AM5muQo
Q0/YxQRDillhWnIpnKHRuRi2fRFyT4Tks0Vjgyh3y7oqleEgibwlLhT03KrqoGaG
GnXLvhBqAxMJGrsDR2YMfclPro9UFriY8+uzRf+Plq3e4OVod6ftIFHuagJVqz9B
WkXqsiqgaA+wBcWonaLpbtDzdAJMZBuFKXjwCRqyJGvMwuTS2Bq5vOQwDHapwwFq
y34UB9P9L6BarlWgBslzSzfNVfMq/Id4u8+Xa+kDIv5R109iQ0o+4UdtWe3zhMTs
M7sorF84caGhUX4gWlwJg4c+qDqXz0DA8QXY0uuhEUpHxM26ndrdHvsu8trJxhKv
QiqQl8hsLySfp27k7oqyNOqGwVObvzb8xfW7z56FE3gCsiqZfeOzejka1kOVjpyu
Y/YlDrNWRTnTngv2sqNQS/a4R75VhB8ADXQuDakFf9nkSue7xLy50Cym5GonQhsA
Wxt5uepeNgx/Irf4nb0Sy3neZgNdHHUcyNDhCtf4beiZUQzM8My5BBVvGupEg2je
bsRsPj4Vt1w5SLQ0ziHDYc6nWOBnrZxFo7hNIIZGRATjFnFyr8yu4pnXu4Z6
-----END CERTIFICATE-----
