Certificate:
    Data:
        Version: 3 (0x2)
        Serial Number: 6 (0x6)
        Signature Algorithm: sha1WithRSAEncryption
        Issuer: C=BA, ST=RS, O=Elektrotehnicki fakultet, OU=CA_ETFBL, CN=root ca/emailAddress=noreply@etfbl.net
        Validity
            Not Before: Jan 10 16:09:09 2021 GMT
            Not After : Jan 10 16:09:09 2022 GMT
        Subject: C=BA, ST=RS, O=Elektrotehnicki fakultet, OU=CA_ETFBL, CN=vlaja/emailAddress=vlaja.vlajic@etfbl.net, SN=Vlajic, GN=Vlaja
        Subject Public Key Info:
            Public Key Algorithm: rsaEncryption
                RSA Public-Key: (1024 bit)
                Modulus:
                    00:ca:18:85:f0:a6:86:e7:81:be:03:21:c0:b3:bf:
                    56:e7:99:0d:56:8d:a5:b8:e6:a1:20:c8:81:2b:9e:
                    54:0d:b0:e8:05:52:a2:9e:30:03:6f:12:d5:81:65:
                    8e:6b:8f:16:ae:b7:da:5e:0b:d9:07:41:25:22:46:
                    b7:18:26:d9:1a:59:67:09:9b:e9:0a:37:cc:d0:d4:
                    84:08:8f:f0:36:a9:ed:5a:0e:02:3f:e0:e8:d6:6f:
                    9b:7f:53:e0:a0:1f:9d:03:31:46:b6:bf:64:4e:61:
                    2a:01:de:a3:1f:9e:45:db:ee:42:98:b1:14:41:37:
                    8b:76:91:48:f2:4b:cc:07:43
                Exponent: 65537 (0x10001)
        X509v3 extensions:
            X509v3 Basic Constraints: 
                CA:FALSE
            X509v3 Key Usage: 
                Digital Signature, Key Encipherment
            Netscape Comment: 
                OpenSSL Generated Certificate
            X509v3 Subject Key Identifier: 
                1C:45:FE:E5:4F:3A:AB:83:77:54:07:A2:88:4F:49:79:52:F7:B9:20
            X509v3 Authority Key Identifier: 
                keyid:81:75:15:61:BD:14:5D:4D:97:E1:6C:03:0D:E5:AF:ED:3D:C8:00:04

            X509v3 CRL Distribution Points: 

                Full Name:
                  URI:http://192.168.21.89/rootcrl.pem

    Signature Algorithm: sha1WithRSAEncryption
         70:14:13:86:b6:1f:d9:2e:fb:37:fb:6f:ac:d3:9b:b9:79:08:
         92:6e:76:76:4e:c0:db:15:fd:04:b4:c5:2b:cc:c7:fd:82:de:
         65:75:8a:c0:91:d5:9d:be:20:89:4a:90:e9:fb:96:c0:84:54:
         d9:36:ba:27:22:ca:28:f8:1c:96:ae:94:92:92:71:09:98:f0:
         1e:10:59:2a:fa:8c:ce:d6:74:cf:47:21:35:f4:68:24:20:71:
         3e:77:eb:1b:35:ad:69:ef:6c:c1:a9:1b:db:07:50:17:ed:62:
         ff:c8:33:6f:94:80:2e:e1:4f:26:97:3b:c5:4e:09:99:08:26:
         49:60:c1:17:dc:ad:66:30:d5:a2:a2:3f:ae:94:e1:99:3a:2e:
         75:b3:92:da:f6:32:77:9c:15:e0:4f:af:00:5f:97:88:a7:83:
         54:bb:22:f1:1d:27:38:fc:f4:13:01:32:ba:16:fb:7d:ef:97:
         7d:37:43:d7:42:7e:51:fd:24:35:4d:4a:db:cf:06:55:c7:99:
         30:98:d6:be:ec:34:24:e7:08:73:2a:f7:87:ef:11:a4:f4:64:
         38:8f:bd:9c:00:45:81:e1:ee:dc:76:8e:13:bc:fd:7f:a2:af:
         16:a0:01:d9:ec:d3:03:ec:fd:e0:0a:24:da:4f:67:7d:30:30:
         a8:8e:fd:dd:90:be:6e:83:da:eb:a3:0c:db:1f:67:cc:61:f4:
         53:c4:bb:20:cc:6b:d1:8c:43:7e:4e:06:19:44:f4:c2:2d:bc:
         b7:d4:28:f9:92:00:ec:bb:27:ca:ee:db:bb:e5:e9:0d:d4:93:
         80:f9:83:dc:f4:48:9a:23:2f:0b:7f:6d:2d:d8:82:c1:77:6f:
         6f:e3:93:45:95:f5:c8:5d:f9:4b:04:65:b5:d5:ed:d8:ec:05:
         a0:04:2a:03:5f:04:89:d3:39:da:91:a5:56:e1:73:cd:38:1d:
         2b:03:90:c7:65:c0:e2:54:43:1b:43:4f:42:32:05:f6:8a:71:
         ef:47:11:68:1b:38:d7:5f:11:69:5c:39:74:37:3d:f3:47:df:
         d8:ff:a3:5f:a6:2c:b1:1c:b8:7c:07:f7:b4:eb:15:1f:d1:64:
         82:dd:59:c2:9c:71:36:e4:d6:fb:47:d0:61:1d:6b:16:79:12:
         67:07:cb:65:e9:fa:f5:83:76:97:67:70:13:f1:c9:7b:a7:16:
         0d:f1:27:68:72:ec:7b:e0:11:f8:43:7b:39:b3:75:c1:b4:9d:
         3f:2d:24:5e:1a:f0:71:75:ad:19:00:33:b0:89:43:1c:0f:94:
         92:43:13:f8:4a:29:77:ff:43:e4:5f:46:db:e7:10:fa:28:f0:
         d8:21:6c:85:9b:c2:36:30
-----BEGIN CERTIFICATE-----
MIIE4jCCAsqgAwIBAgIBBjANBgkqhkiG9w0BAQUFADCBhDELMAkGA1UEBhMCQkEx
CzAJBgNVBAgTAlJTMSEwHwYDVQQKExhFbGVrdHJvdGVobmlja2kgZmFrdWx0ZXQx
ETAPBgNVBAsUCENBX0VURkJMMRAwDgYDVQQDEwdyb290IGNhMSAwHgYJKoZIhvcN
AQkBFhFub3JlcGx5QGV0ZmJsLm5ldDAeFw0yMTAxMTAxNjA5MDlaFw0yMjAxMTAx
NjA5MDlaMIGoMQswCQYDVQQGEwJCQTELMAkGA1UECBMCUlMxITAfBgNVBAoTGEVs
ZWt0cm90ZWhuaWNraSBmYWt1bHRldDERMA8GA1UECxQIQ0FfRVRGQkwxDjAMBgNV
BAMTBXZsYWphMSUwIwYJKoZIhvcNAQkBFhZ2bGFqYS52bGFqaWNAZXRmYmwubmV0
MQ8wDQYDVQQEEwZWbGFqaWMxDjAMBgNVBCoTBVZsYWphMIGfMA0GCSqGSIb3DQEB
AQUAA4GNADCBiQKBgQDKGIXwpobngb4DIcCzv1bnmQ1WjaW45qEgyIErnlQNsOgF
UqKeMANvEtWBZY5rjxaut9peC9kHQSUiRrcYJtkaWWcJm+kKN8zQ1IQIj/A2qe1a
DgI/4OjWb5t/U+CgH50DMUa2v2ROYSoB3qMfnkXb7kKYsRRBN4t2kUjyS8wHQwID
AQABo4G8MIG5MAkGA1UdEwQCMAAwCwYDVR0PBAQDAgWgMCwGCWCGSAGG+EIBDQQf
Fh1PcGVuU1NMIEdlbmVyYXRlZCBDZXJ0aWZpY2F0ZTAdBgNVHQ4EFgQUHEX+5U86
q4N3VAeiiE9JeVL3uSAwHwYDVR0jBBgwFoAUgXUVYb0UXU2X4WwDDeWv7T3IAAQw
MQYDVR0fBCowKDAmoCSgIoYgaHR0cDovLzE5Mi4xNjguMjEuODkvcm9vdGNybC5w
ZW0wDQYJKoZIhvcNAQEFBQADggIBAHAUE4a2H9ku+zf7b6zTm7l5CJJudnZOwNsV
/QS0xSvMx/2C3mV1isCR1Z2+IIlKkOn7lsCEVNk2uiciyij4HJaulJKScQmY8B4Q
WSr6jM7WdM9HITX0aCQgcT536xs1rWnvbMGpG9sHUBftYv/IM2+UgC7hTyaXO8VO
CZkIJklgwRfcrWYw1aKiP66U4Zk6LnWzktr2MnecFeBPrwBfl4ing1S7IvEdJzj8
9BMBMroW+33vl303Q9dCflH9JDVNStvPBlXHmTCY1r7sNCTnCHMq94fvEaT0ZDiP
vZwARYHh7tx2jhO8/X+irxagAdns0wPs/eAKJNpPZ30wMKiO/d2Qvm6D2uujDNsf
Z8xh9FPEuyDMa9GMQ35OBhlE9MItvLfUKPmSAOy7J8ru27vl6Q3Uk4D5g9z0SJoj
Lwt/bS3YgsF3b2/jk0WV9chd+UsEZbXV7djsBaAEKgNfBInTOdqRpVbhc804HSsD
kMdlwOJUQxtDT0IyBfaKce9HEWgbONdfEWlcOXQ3PfNH39j/o1+mLLEcuHwH97Tr
FR/RZILdWcKccTbk1vtH0GEdaxZ5EmcHy2Xp+vWDdpdncBPxyXunFg3xJ2hy7Hvg
EfhDezmzdcG0nT8tJF4a8HF1rRkAM7CJQxwPlJJDE/hKKXf/Q+RfRtvnEPoo8Ngh
bIWbwjYw
-----END CERTIFICATE-----
