Certificate:
    Data:
        Version: 3 (0x2)
        Serial Number: 7 (0x7)
        Signature Algorithm: sha1WithRSAEncryption
        Issuer: C=BA, ST=RS, O=Elektrotehnicki fakultet, OU=CA_ETFBL, CN=root ca/emailAddress=noreply@etfbl.net
        Validity
            Not Before: Jan 10 16:15:59 2021 GMT
            Not After : Jan 10 16:15:59 2022 GMT
        Subject: C=BA, ST=RS, O=Elektrotehnicki fakultet, OU=CA_ETFBL, CN=nikola/emailAddress=nikola.nikolic@etfbl.net, SN=Nikolic, GN=Nikola
        Subject Public Key Info:
            Public Key Algorithm: rsaEncryption
                RSA Public-Key: (2048 bit)
                Modulus:
                    00:d7:34:0a:af:77:64:6b:9f:1d:7c:8b:be:45:79:
                    88:43:a0:f9:5a:a3:1b:80:52:e0:3a:82:42:db:55:
                    8b:a5:19:d2:22:c6:c4:af:5f:c2:eb:c6:d8:9c:75:
                    29:b4:95:65:4d:37:51:e8:41:ca:2d:c9:7c:a4:75:
                    ec:8d:d3:13:59:b2:a1:5c:fe:84:3a:32:36:67:42:
                    7d:1c:74:a7:92:20:91:37:85:69:91:dc:58:26:31:
                    2d:ef:79:09:87:09:21:57:b4:19:94:6a:2e:23:e7:
                    5c:5f:78:47:40:58:bd:f9:34:d8:43:9c:6e:a9:3a:
                    06:b3:25:ef:f3:15:78:5b:da:e9:54:b3:79:fc:b1:
                    e4:1c:b0:b3:93:b2:a8:76:9d:e6:e4:14:7b:3c:f5:
                    16:ca:12:5a:4c:cb:8f:01:ad:24:36:cd:92:7b:00:
                    5c:2c:f7:d1:0c:6e:72:b6:4e:8e:53:9d:ac:d9:35:
                    ce:db:05:de:5b:52:3a:e7:cc:35:8c:b2:f5:0f:72:
                    3e:9a:a8:bc:db:cd:91:1b:c8:e4:74:fd:cf:e7:f1:
                    bc:d0:0d:ad:30:03:04:d4:cb:1f:95:fd:75:8d:ad:
                    1a:0c:1d:c5:be:66:a0:5b:44:f9:21:9f:d8:3d:cd:
                    4b:33:34:e4:14:92:27:f7:fc:bc:78:20:ae:49:ac:
                    15:b9
                Exponent: 65537 (0x10001)
        X509v3 extensions:
            X509v3 Basic Constraints: 
                CA:FALSE
            X509v3 Key Usage: 
                Encipher Only
            Netscape Comment: 
                OpenSSL Generated Certificate
            X509v3 Subject Key Identifier: 
                B8:74:59:BF:47:3F:55:29:25:00:B1:7C:6F:DD:40:EF:B9:A9:ED:A4
            X509v3 Authority Key Identifier: 
                keyid:81:75:15:61:BD:14:5D:4D:97:E1:6C:03:0D:E5:AF:ED:3D:C8:00:04

            X509v3 CRL Distribution Points: 

                Full Name:
                  URI:http://192.168.21.89/rootcrl.pem

    Signature Algorithm: sha1WithRSAEncryption
         85:32:82:63:1c:ac:c7:ac:80:e8:08:05:13:d3:3d:b3:82:44:
         1d:c4:b5:b9:dc:17:2f:51:4d:3e:32:a0:dd:a7:43:76:5a:ba:
         c8:cf:56:21:f5:22:e9:2f:39:48:04:d1:b2:3c:bb:69:5f:ee:
         fc:2a:cd:a9:0e:95:a9:3e:81:7f:68:9f:13:eb:77:03:a9:28:
         09:49:13:f4:06:23:91:7e:68:ba:24:1d:0b:fd:03:8c:71:ea:
         67:7d:d7:57:d2:95:95:d5:6d:3d:4f:ec:ef:ae:f8:1a:77:ab:
         06:d9:59:76:95:47:a0:18:c5:e0:9d:0a:93:c1:2c:2d:8b:f6:
         50:b2:5c:fc:fb:c3:d9:a9:ae:62:65:5f:d0:e6:c8:16:bc:ee:
         09:17:74:ff:52:bf:29:5d:8a:f1:f0:81:6a:de:98:5b:3c:be:
         6f:dc:74:ae:bc:16:81:b4:7f:68:33:a7:ae:50:c0:e2:ad:37:
         74:44:2e:1b:25:23:07:27:36:61:5c:92:ce:3c:89:57:ce:de:
         03:ab:46:bb:75:73:24:92:cb:d0:91:8d:9d:eb:b2:9d:b1:16:
         1a:0f:ac:4c:1d:dd:f4:49:49:a9:25:6d:27:a9:6e:6a:9d:94:
         08:c6:5a:82:f4:7c:61:6f:93:aa:f0:ab:f7:b2:d9:64:02:73:
         36:4a:cc:91:c0:a6:49:08:4c:2d:00:ee:d8:78:c2:60:3c:b3:
         9f:47:dc:47:b5:70:12:da:f4:c4:1a:25:84:41:bc:8f:66:e7:
         b5:fc:f6:53:cc:9c:d5:4a:c4:6e:08:e0:c4:47:a4:a0:ad:8d:
         73:22:a2:33:c9:9c:ba:5e:8b:2e:13:b4:7c:4f:2d:4a:22:19:
         1b:5d:21:5b:02:20:36:3a:aa:96:b4:40:23:1e:ab:2e:5f:f0:
         41:e8:a0:d6:3f:e6:97:08:fd:0c:c6:51:50:1c:90:9a:94:fd:
         e4:b3:12:f0:aa:ae:be:1b:55:6c:0f:6d:21:67:73:75:a8:70:
         4d:54:bd:03:95:17:1b:33:87:d6:5d:34:87:68:04:60:9f:f9:
         4d:31:e8:f8:20:09:ea:a8:55:a3:1d:5d:ed:d4:0d:f5:69:a0:
         48:64:1f:d5:ec:53:b9:e9:15:0f:f2:f5:08:57:5b:bb:f4:01:
         57:98:2a:1f:9b:cd:f3:c4:e4:d6:dc:ea:e4:85:03:84:fe:92:
         c2:50:e9:da:45:de:b2:06:1d:88:05:fb:ca:8f:a9:fd:6f:e3:
         b0:a9:82:10:df:c5:77:ed:81:b1:67:e4:9c:88:df:b9:47:de:
         1f:22:39:e0:af:90:8b:2c:46:68:f1:20:15:b4:3c:5e:ce:0f:
         12:05:6a:19:c1:97:1e:ad
-----BEGIN CERTIFICATE-----
MIIFazCCA1OgAwIBAgIBBzANBgkqhkiG9w0BAQUFADCBhDELMAkGA1UEBhMCQkEx
CzAJBgNVBAgTAlJTMSEwHwYDVQQKExhFbGVrdHJvdGVobmlja2kgZmFrdWx0ZXQx
ETAPBgNVBAsUCENBX0VURkJMMRAwDgYDVQQDEwdyb290IGNhMSAwHgYJKoZIhvcN
AQkBFhFub3JlcGx5QGV0ZmJsLm5ldDAeFw0yMTAxMTAxNjE1NTlaFw0yMjAxMTAx
NjE1NTlaMIGtMQswCQYDVQQGEwJCQTELMAkGA1UECBMCUlMxITAfBgNVBAoTGEVs
ZWt0cm90ZWhuaWNraSBmYWt1bHRldDERMA8GA1UECxQIQ0FfRVRGQkwxDzANBgNV
BAMTBm5pa29sYTEnMCUGCSqGSIb3DQEJARYYbmlrb2xhLm5pa29saWNAZXRmYmwu
bmV0MRAwDgYDVQQEEwdOaWtvbGljMQ8wDQYDVQQqEwZOaWtvbGEwggEiMA0GCSqG
SIb3DQEBAQUAA4IBDwAwggEKAoIBAQDXNAqvd2Rrnx18i75FeYhDoPlaoxuAUuA6
gkLbVYulGdIixsSvX8LrxticdSm0lWVNN1HoQcotyXykdeyN0xNZsqFc/oQ6MjZn
Qn0cdKeSIJE3hWmR3FgmMS3veQmHCSFXtBmUai4j51xfeEdAWL35NNhDnG6pOgaz
Je/zFXhb2ulUs3n8seQcsLOTsqh2nebkFHs89RbKElpMy48BrSQ2zZJ7AFws99EM
bnK2To5TnazZNc7bBd5bUjrnzDWMsvUPcj6aqLzbzZEbyOR0/c/n8bzQDa0wAwTU
yx+V/XWNrRoMHcW+ZqBbRPkhn9g9zUszNOQUkif3/Lx4IK5JrBW5AgMBAAGjgbww
gbkwCQYDVR0TBAIwADALBgNVHQ8EBAMCAAEwLAYJYIZIAYb4QgENBB8WHU9wZW5T
U0wgR2VuZXJhdGVkIENlcnRpZmljYXRlMB0GA1UdDgQWBBS4dFm/Rz9VKSUAsXxv
3UDvuantpDAfBgNVHSMEGDAWgBSBdRVhvRRdTZfhbAMN5a/tPcgABDAxBgNVHR8E
KjAoMCagJKAihiBodHRwOi8vMTkyLjE2OC4yMS44OS9yb290Y3JsLnBlbTANBgkq
hkiG9w0BAQUFAAOCAgEAhTKCYxysx6yA6AgFE9M9s4JEHcS1udwXL1FNPjKg3adD
dlq6yM9WIfUi6S85SATRsjy7aV/u/CrNqQ6VqT6Bf2ifE+t3A6koCUkT9AYjkX5o
uiQdC/0DjHHqZ33XV9KVldVtPU/s7674GnerBtlZdpVHoBjF4J0Kk8EsLYv2ULJc
/PvD2amuYmVf0ObIFrzuCRd0/1K/KV2K8fCBat6YWzy+b9x0rrwWgbR/aDOnrlDA
4q03dEQuGyUjByc2YVySzjyJV87eA6tGu3VzJJLL0JGNneuynbEWGg+sTB3d9ElJ
qSVtJ6luap2UCMZagvR8YW+TqvCr97LZZAJzNkrMkcCmSQhMLQDu2HjCYDyzn0fc
R7VwEtr0xBolhEG8j2bntfz2U8yc1UrEbgjgxEekoK2NcyKiM8mcul6LLhO0fE8t
SiIZG10hWwIgNjqqlrRAIx6rLl/wQeig1j/mlwj9DMZRUByQmpT95LMS8KquvhtV
bA9tIWdzdahwTVS9A5UXGzOH1l00h2gEYJ/5TTHo+CAJ6qhVox1d7dQN9WmgSGQf
1exTuekVD/L1CFdbu/QBV5gqH5vN88Tk1tzq5IUDhP6SwlDp2kXesgYdiAX7yo+p
/W/jsKmCEN/Fd+2BsWfknIjfuUfeHyI54K+QiyxGaPEgFbQ8Xs4PEgVqGcGXHq0=
-----END CERTIFICATE-----
