Certificate:
    Data:
        Version: 3 (0x2)
        Serial Number: 9 (0x9)
        Signature Algorithm: sha1WithRSAEncryption
        Issuer: C=BA, ST=RS, O=Elektrotehnicki fakultet, OU=CA_ETFBL, CN=root ca 2/emailAddress=noreply-2@etfbl.net
        Validity
            Not Before: Jan 10 16:21:43 2021 GMT
            Not After : Jan 10 16:21:43 2022 GMT
        Subject: C=BA, ST=RS, O=Elektrotehnicki fakultet, OU=CA_ETFBL, CN=jovan/emailAddress=jovan.jovic@etfbl.net, SN=Jovic, GN=Jovan
        Subject Public Key Info:
            Public Key Algorithm: rsaEncryption
                RSA Public-Key: (2048 bit)
                Modulus:
                    00:ac:8d:75:88:54:d9:84:d9:15:2e:78:56:21:04:
                    9c:79:f5:53:e0:8b:bc:d6:02:cc:1a:36:c9:05:21:
                    82:de:0c:c5:55:f3:c2:37:6e:e1:11:d5:62:89:f9:
                    8b:a1:ae:5b:ed:b0:5a:c4:52:52:c3:df:e7:eb:a2:
                    19:e0:3c:85:8c:ec:60:8a:63:5d:47:86:38:97:74:
                    2d:9d:b0:c3:aa:f8:2e:ab:0a:ae:9d:fe:64:1b:ab:
                    ff:1c:22:a0:2e:50:0b:e8:d8:f2:e8:fe:ec:40:36:
                    2b:06:af:f1:67:0f:5a:f7:3f:a6:70:e2:cd:6e:9f:
                    cd:42:32:f0:e3:7d:3d:b9:9a:a5:5c:cd:f3:ba:c5:
                    b6:84:36:68:b6:60:4c:80:d7:0e:37:36:90:f2:71:
                    68:36:f9:5d:86:15:c4:60:89:c2:bc:a1:39:18:39:
                    a9:fc:6e:b2:77:e3:ed:e3:86:5f:5c:d4:e3:29:46:
                    1a:57:6f:39:34:00:6e:9c:f4:0f:20:54:b6:9d:c4:
                    44:56:ca:bd:e0:03:1e:12:57:a5:63:8f:25:1c:b7:
                    23:85:10:ac:31:3a:78:26:b7:fe:99:39:b9:bf:d7:
                    9a:f5:ec:db:2f:69:fa:42:c1:ac:97:f8:aa:83:26:
                    21:b2:93:59:36:4f:cf:5d:c1:f9:1c:e4:2e:53:3f:
                    97:29
                Exponent: 65537 (0x10001)
        X509v3 extensions:
            X509v3 Basic Constraints: 
                CA:FALSE
            X509v3 Key Usage: 
                Digital Signature, Key Encipherment
            Netscape Comment: 
                OpenSSL Generated Certificate
            X509v3 Subject Key Identifier: 
                AF:07:A3:3A:7E:2C:24:DA:DC:78:24:35:0E:5E:BA:A5:24:4F:4C:A1
            X509v3 Authority Key Identifier: 
                keyid:C7:82:06:C3:3C:FA:B3:09:9D:08:91:53:F7:8F:69:FA:99:08:A6:F6

            X509v3 CRL Distribution Points: 

                Full Name:
                  URI:http://192.168.21.89/rootcrl.pem

    Signature Algorithm: sha1WithRSAEncryption
         76:28:80:0e:bb:40:ba:fa:c8:6d:aa:05:e5:7d:56:c1:cd:65:
         55:98:f8:1c:a3:16:86:28:f1:db:0d:90:4f:ef:b6:b5:16:c0:
         fc:d6:cf:78:68:82:70:0b:91:bc:3e:11:e5:41:81:54:0f:88:
         9e:4f:80:61:94:a4:39:68:19:4d:27:6f:a2:12:bb:65:d5:02:
         4c:be:a6:c0:7c:fc:24:9d:24:8e:29:15:81:4c:bf:a6:0f:b7:
         af:b3:aa:1c:bf:e3:4c:32:b7:f2:72:68:33:41:ba:5b:23:28:
         24:15:1b:9e:ea:72:2c:f7:7c:d9:12:7b:5a:44:53:99:b9:a1:
         f1:47:ce:fb:e2:78:4e:61:c1:67:2c:84:f5:6c:a2:85:98:e6:
         bd:98:63:7a:fc:ac:34:cd:2f:48:5a:65:f5:15:a4:57:6b:f3:
         48:46:06:40:cc:96:94:c3:48:22:a3:ba:44:5c:9e:a8:3f:f8:
         85:47:44:cb:3b:56:ec:35:ea:91:2c:50:42:8c:3a:ff:89:0e:
         b4:ce:f1:80:87:5b:99:a5:4a:1e:66:31:6c:c3:5d:e5:f1:b9:
         f8:7c:1e:e9:66:1b:80:35:b8:ef:23:1e:c4:1f:33:ea:39:75:
         7f:1c:52:18:b8:d1:3e:2b:ba:18:2b:b9:8a:61:49:75:e1:62:
         c8:04:6b:19
-----BEGIN CERTIFICATE-----
MIIEaDCCA1CgAwIBAgIBCTANBgkqhkiG9w0BAQUFADCBiDELMAkGA1UEBhMCQkEx
CzAJBgNVBAgTAlJTMSEwHwYDVQQKExhFbGVrdHJvdGVobmlja2kgZmFrdWx0ZXQx
ETAPBgNVBAsUCENBX0VURkJMMRIwEAYDVQQDEwlyb290IGNhIDIxIjAgBgkqhkiG
9w0BCQEWE25vcmVwbHktMkBldGZibC5uZXQwHhcNMjEwMTEwMTYyMTQzWhcNMjIw
MTEwMTYyMTQzWjCBpjELMAkGA1UEBhMCQkExCzAJBgNVBAgTAlJTMSEwHwYDVQQK
ExhFbGVrdHJvdGVobmlja2kgZmFrdWx0ZXQxETAPBgNVBAsUCENBX0VURkJMMQ4w
DAYDVQQDEwVqb3ZhbjEkMCIGCSqGSIb3DQEJARYVam92YW4uam92aWNAZXRmYmwu
bmV0MQ4wDAYDVQQEEwVKb3ZpYzEOMAwGA1UEKhMFSm92YW4wggEiMA0GCSqGSIb3
DQEBAQUAA4IBDwAwggEKAoIBAQCsjXWIVNmE2RUueFYhBJx59VPgi7zWAswaNskF
IYLeDMVV88I3buER1WKJ+YuhrlvtsFrEUlLD3+frohngPIWM7GCKY11HhjiXdC2d
sMOq+C6rCq6d/mQbq/8cIqAuUAvo2PLo/uxANisGr/FnD1r3P6Zw4s1un81CMvDj
fT25mqVczfO6xbaENmi2YEyA1w43NpDycWg2+V2GFcRgicK8oTkYOan8brJ34+3j
hl9c1OMpRhpXbzk0AG6c9A8gVLadxERWyr3gAx4SV6VjjyUctyOFEKwxOngmt/6Z
Obm/15r17NsvafpCwayX+KqDJiGyk1k2T89dwfkc5C5TP5cpAgMBAAGjgbwwgbkw
CQYDVR0TBAIwADALBgNVHQ8EBAMCBaAwLAYJYIZIAYb4QgENBB8WHU9wZW5TU0wg
R2VuZXJhdGVkIENlcnRpZmljYXRlMB0GA1UdDgQWBBSvB6M6fiwk2tx4JDUOXrql
JE9MoTAfBgNVHSMEGDAWgBTHggbDPPqzCZ0IkVP3j2n6mQim9jAxBgNVHR8EKjAo
MCagJKAihiBodHRwOi8vMTkyLjE2OC4yMS44OS9yb290Y3JsLnBlbTANBgkqhkiG
9w0BAQUFAAOCAQEAdiiADrtAuvrIbaoF5X1Wwc1lVZj4HKMWhijx2w2QT++2tRbA
/NbPeGiCcAuRvD4R5UGBVA+Ink+AYZSkOWgZTSdvohK7ZdUCTL6mwHz8JJ0kjikV
gUy/pg+3r7OqHL/jTDK38nJoM0G6WyMoJBUbnupyLPd82RJ7WkRTmbmh8UfO++J4
TmHBZyyE9WyihZjmvZhjevysNM0vSFpl9RWkV2vzSEYGQMyWlMNIIqO6RFyeqD/4
hUdEyztW7DXqkSxQQow6/4kOtM7xgIdbmaVKHmYxbMNd5fG5+Hwe6WYbgDW47yMe
xB8z6jl1fxxSGLjRPiu6GCu5imFJdeFiyARrGQ==
-----END CERTIFICATE-----
