Certificate:
    Data:
        Version: 3 (0x2)
        Serial Number: 1 (0x1)
        Signature Algorithm: sha1WithRSAEncryption
        Issuer: C=BA, ST=RS, O=Elektrotehnicki fakultet, OU=CA_ETFBL, CN=root ca/emailAddress=noreply@etfbl.net
        Validity
            Not Before: Jan 10 16:07:39 2021 GMT
            Not After : Jan 10 16:07:39 2022 GMT
        Subject: C=BA, ST=RS, O=Elektrotehnicki fakultet, OU=CA_ETFBL, CN=aleksa/emailAddress=aleksa.aleksic@etfb.net, SN=Aleksic, GN=Aleksa
        Subject Public Key Info:
            Public Key Algorithm: rsaEncryption
                RSA Public-Key: (2048 bit)
                Modulus:
                    00:d4:d3:ac:d4:1a:23:8f:57:36:b7:50:17:40:a6:
                    00:c6:da:f3:f8:ae:cf:29:a1:a6:1f:eb:21:50:0f:
                    c2:51:f2:c8:af:19:bf:19:a1:05:60:1e:13:cb:f4:
                    61:4c:4c:f7:d6:88:ed:8d:0e:81:3e:49:62:e4:a2:
                    df:9e:87:1a:48:fb:bf:28:54:70:72:b0:86:3a:17:
                    1f:a0:02:29:0d:b1:78:b0:01:3b:69:12:04:cb:da:
                    c6:16:a3:93:d0:c4:aa:62:e2:8f:36:31:86:e5:f5:
                    59:45:45:70:fb:2d:59:d5:35:88:fc:dc:5c:14:cb:
                    af:ed:68:b3:97:62:9f:85:c1:6f:f7:73:df:d9:95:
                    e2:a0:7c:6d:99:51:db:2d:2c:ee:d2:a0:33:34:ed:
                    ba:71:c3:71:5d:0c:ba:77:d0:52:da:98:59:61:c8:
                    96:8f:11:4c:50:84:e4:1d:a9:ad:db:32:cf:53:f3:
                    e7:70:f3:23:2e:28:e2:2d:08:b7:9f:49:1a:86:d6:
                    e3:f9:26:74:99:42:b7:22:64:1c:e4:60:87:23:ed:
                    05:1b:37:fa:b3:47:d7:92:5a:3a:cd:52:28:54:d0:
                    04:0e:82:62:5d:a5:77:c7:f0:15:0d:0f:aa:d3:ae:
                    d0:7f:0e:0f:85:40:25:03:85:cc:5c:3c:c3:68:ff:
                    a4:15
                Exponent: 65537 (0x10001)
        X509v3 extensions:
            X509v3 Basic Constraints: 
                CA:FALSE
            X509v3 Key Usage: 
                Digital Signature, Key Encipherment
            Netscape Comment: 
                OpenSSL Generated Certificate
            X509v3 Subject Key Identifier: 
                EB:8C:CF:D8:BB:BF:6F:E4:E1:62:BF:FE:55:35:76:53:99:70:13:C0
            X509v3 Authority Key Identifier: 
                keyid:81:75:15:61:BD:14:5D:4D:97:E1:6C:03:0D:E5:AF:ED:3D:C8:00:04

            X509v3 CRL Distribution Points: 

                Full Name:
                  URI:http://192.168.21.89/rootcrl.pem

    Signature Algorithm: sha1WithRSAEncryption
         7f:88:8c:9f:79:43:37:32:2e:1e:de:e4:f3:7c:2d:bf:ab:45:
         f4:d9:6b:42:f1:bb:ac:a1:89:a9:b7:a2:bd:b4:b3:ed:17:b2:
         ce:f4:39:9a:ed:a3:1a:57:fd:9c:86:b6:6e:9d:83:c8:27:25:
         50:d0:48:9b:31:cd:6f:1e:96:a8:de:d4:ad:21:44:6f:7e:d5:
         e1:01:53:7a:f1:14:c4:e4:47:d9:d6:f9:15:8d:13:1b:e5:e2:
         52:a1:3b:d3:b8:a5:49:29:b9:d1:09:64:cd:df:92:69:a7:04:
         bb:80:ec:7a:e1:9e:ad:b8:d6:e6:b1:1a:6c:fa:2c:41:f3:fa:
         cd:50:d5:38:14:e1:83:f2:1e:cd:c1:33:ef:aa:e9:56:b2:c3:
         4b:88:d2:96:9d:d8:83:90:9b:b1:2d:09:9d:e8:2b:c2:af:e6:
         66:ec:e8:c8:18:3d:66:fe:6e:c5:23:40:75:ab:02:d0:03:20:
         66:88:08:4a:d9:36:6c:fc:9d:99:ff:d1:86:63:d2:da:57:bc:
         1b:10:fd:47:7a:60:57:04:3d:c5:55:f0:6d:17:2b:f5:ea:5b:
         4d:41:62:e5:a9:b6:19:b3:b1:b6:a2:f4:a6:a8:2b:88:fe:37:
         5c:4e:11:94:75:00:0a:f0:91:fb:d9:ff:90:9a:04:51:25:0d:
         51:d3:04:87:a9:f8:a0:35:02:2c:ff:d1:82:0d:49:e5:89:56:
         78:a1:2f:b3:a3:11:b2:3a:1c:01:3f:a9:22:50:59:62:b0:33:
         62:06:a6:79:cb:fa:ac:0a:46:27:d7:ae:30:f5:c5:f4:8d:62:
         7b:af:d0:d3:14:d9:f3:6e:47:51:95:4b:37:40:0c:f7:ce:58:
         7b:9e:4e:90:5f:56:0f:1a:19:b1:85:82:cb:f5:ee:2a:f8:ac:
         46:2e:b9:02:2f:11:c4:98:28:dc:08:15:c4:40:8c:0e:7d:18:
         c5:09:81:6f:fa:85:89:2a:0d:fb:9c:4e:1d:c2:a9:df:a9:95:
         9f:52:f6:27:23:ce:06:7f:61:d8:a9:11:03:3e:08:d2:60:9f:
         4b:2a:34:d2:b4:73:27:d9:5f:ac:3f:27:1f:2f:e4:a5:da:25:
         06:f5:fd:79:cd:5c:88:ba:5c:1a:d3:ed:18:04:83:57:6d:2d:
         ce:1e:f3:3f:74:bb:45:8d:a9:cd:f1:28:42:6e:f0:b6:43:db:
         7d:7a:c8:e8:59:54:73:4f:43:cb:5b:77:81:ca:0f:a4:d1:8e:
         ab:8c:5b:41:61:a0:a8:93:10:65:6a:62:65:33:48:d0:0d:6a:
         10:ec:1e:99:e8:a2:d2:b2:20:ec:ac:b7:d5:a8:7d:ea:ef:7d:
         3a:d4:a0:85:ad:4b:65:55
-----BEGIN CERTIFICATE-----
MIIFajCCA1KgAwIBAgIBATANBgkqhkiG9w0BAQUFADCBhDELMAkGA1UEBhMCQkEx
CzAJBgNVBAgTAlJTMSEwHwYDVQQKExhFbGVrdHJvdGVobmlja2kgZmFrdWx0ZXQx
ETAPBgNVBAsUCENBX0VURkJMMRAwDgYDVQQDEwdyb290IGNhMSAwHgYJKoZIhvcN
AQkBFhFub3JlcGx5QGV0ZmJsLm5ldDAeFw0yMTAxMTAxNjA3MzlaFw0yMjAxMTAx
NjA3MzlaMIGsMQswCQYDVQQGEwJCQTELMAkGA1UECBMCUlMxITAfBgNVBAoTGEVs
ZWt0cm90ZWhuaWNraSBmYWt1bHRldDERMA8GA1UECxQIQ0FfRVRGQkwxDzANBgNV
BAMTBmFsZWtzYTEmMCQGCSqGSIb3DQEJARYXYWxla3NhLmFsZWtzaWNAZXRmYi5u
ZXQxEDAOBgNVBAQTB0FsZWtzaWMxDzANBgNVBCoTBkFsZWtzYTCCASIwDQYJKoZI
hvcNAQEBBQADggEPADCCAQoCggEBANTTrNQaI49XNrdQF0CmAMba8/iuzymhph/r
IVAPwlHyyK8ZvxmhBWAeE8v0YUxM99aI7Y0OgT5JYuSi356HGkj7vyhUcHKwhjoX
H6ACKQ2xeLABO2kSBMvaxhajk9DEqmLijzYxhuX1WUVFcPstWdU1iPzcXBTLr+1o
s5din4XBb/dz39mV4qB8bZlR2y0s7tKgMzTtunHDcV0MunfQUtqYWWHIlo8RTFCE
5B2prdsyz1Pz53DzIy4o4i0It59JGobW4/kmdJlCtyJkHORghyPtBRs3+rNH15Ja
Os1SKFTQBA6CYl2ld8fwFQ0PqtOu0H8OD4VAJQOFzFw8w2j/pBUCAwEAAaOBvDCB
uTAJBgNVHRMEAjAAMAsGA1UdDwQEAwIFoDAsBglghkgBhvhCAQ0EHxYdT3BlblNT
TCBHZW5lcmF0ZWQgQ2VydGlmaWNhdGUwHQYDVR0OBBYEFOuMz9i7v2/k4WK//lU1
dlOZcBPAMB8GA1UdIwQYMBaAFIF1FWG9FF1Nl+FsAw3lr+09yAAEMDEGA1UdHwQq
MCgwJqAkoCKGIGh0dHA6Ly8xOTIuMTY4LjIxLjg5L3Jvb3RjcmwucGVtMA0GCSqG
SIb3DQEBBQUAA4ICAQB/iIyfeUM3Mi4e3uTzfC2/q0X02WtC8busoYmpt6K9tLPt
F7LO9Dma7aMaV/2chrZunYPIJyVQ0EibMc1vHpao3tStIURvftXhAVN68RTE5EfZ
1vkVjRMb5eJSoTvTuKVJKbnRCWTN35JppwS7gOx64Z6tuNbmsRps+ixB8/rNUNU4
FOGD8h7NwTPvqulWssNLiNKWndiDkJuxLQmd6CvCr+Zm7OjIGD1m/m7FI0B1qwLQ
AyBmiAhK2TZs/J2Z/9GGY9LaV7wbEP1HemBXBD3FVfBtFyv16ltNQWLlqbYZs7G2
ovSmqCuI/jdcThGUdQAK8JH72f+QmgRRJQ1R0wSHqfigNQIs/9GCDUnliVZ4oS+z
oxGyOhwBP6kiUFlisDNiBqZ5y/qsCkYn164w9cX0jWJ7r9DTFNnzbkdRlUs3QAz3
zlh7nk6QX1YPGhmxhYLL9e4q+KxGLrkCLxHEmCjcCBXEQIwOfRjFCYFv+oWJKg37
nE4dwqnfqZWfUvYnI84Gf2HYqREDPgjSYJ9LKjTStHMn2V+sPycfL+Sl2iUG9f15
zVyIulwa0+0YBINXbS3OHvM/dLtFjanN8ShCbvC2Q9t9esjoWVRzT0PLW3eByg+k
0Y6rjFtBYaCokxBlamJlM0jQDWoQ7B6Z6KLSsiDsrLfVqH3q73061KCFrUtlVQ==
-----END CERTIFICATE-----
