Certificate:
    Data:
        Version: 3 (0x2)
        Serial Number: 3 (0x3)
        Signature Algorithm: sha1WithRSAEncryption
        Issuer: C=BA, ST=RS, O=Elektrotehnicki fakultet, OU=CA_ETFBL, CN=root ca/emailAddress=noreply@etfbl.net
        Validity
            Not Before: Jan 10 16:07:43 2021 GMT
            Not After : Jan 10 16:07:43 2022 GMT
        Subject: C=BA, ST=RS, O=Elektrotehnicki fakultet, OU=CA_ETFBL, CN=janko/emailAddress=janko.jankovic@etfbl.net, SN=Jankovic, GN=Janko
        Subject Public Key Info:
            Public Key Algorithm: rsaEncryption
                RSA Public-Key: (2048 bit)
                Modulus:
                    00:c7:e7:be:a7:90:f3:fd:57:2c:7f:5e:3e:9e:c8:
                    3e:0f:90:62:3f:05:98:ca:54:c2:77:75:f1:ed:d3:
                    29:c0:60:ac:bb:30:9c:d7:f4:1f:41:8d:07:c1:83:
                    6f:3e:59:34:8b:5f:e9:97:6a:4e:49:56:d6:0c:b4:
                    e7:33:f0:56:ea:c3:11:88:a2:08:99:b8:93:db:73:
                    a0:d1:fe:68:25:c6:07:f6:d7:db:d9:91:f7:33:04:
                    0c:fe:27:20:fa:68:b2:5a:51:37:ff:8d:3a:44:1c:
                    ae:f6:7d:4e:2a:3c:2d:93:26:a2:23:e1:57:c2:26:
                    2f:5a:2b:10:59:05:77:09:dd:7b:28:d6:08:40:bc:
                    4c:27:60:3f:54:f4:cf:78:56:ae:3f:86:99:35:26:
                    22:8e:2a:c8:d7:a2:bf:51:a8:fa:57:b9:52:c4:26:
                    cf:17:ca:ff:c1:66:d3:51:0f:3a:7a:55:4b:1c:73:
                    49:94:61:33:ff:a1:d2:15:ba:1f:5f:f9:6f:6d:e5:
                    32:dd:73:90:90:a8:99:de:c5:57:7b:60:5c:02:b3:
                    5e:c2:01:81:3f:bb:5f:84:47:f3:df:ad:06:dc:5f:
                    53:3e:4d:31:97:34:da:79:00:f1:78:b9:97:bd:43:
                    cb:34:42:31:c9:90:ae:d3:02:e9:16:ef:6a:74:48:
                    d9:2f
                Exponent: 65537 (0x10001)
        X509v3 extensions:
            X509v3 Basic Constraints: 
                CA:FALSE
            X509v3 Key Usage: 
                Digital Signature, Key Encipherment
            Netscape Comment: 
                OpenSSL Generated Certificate
            X509v3 Subject Key Identifier: 
                08:32:6D:65:9A:22:88:C4:34:00:73:0D:A0:1A:A6:41:DE:64:A6:A1
            X509v3 Authority Key Identifier: 
                keyid:81:75:15:61:BD:14:5D:4D:97:E1:6C:03:0D:E5:AF:ED:3D:C8:00:04

            X509v3 CRL Distribution Points: 

                Full Name:
                  URI:http://192.168.21.89/rootcrl.pem

    Signature Algorithm: sha1WithRSAEncryption
         9a:f1:86:ee:36:12:43:19:8f:87:82:17:fc:77:b3:73:b6:55:
         81:fd:17:71:1b:51:2c:fe:c7:ae:11:65:2e:bf:36:a4:11:08:
         04:10:2d:a1:19:a1:5b:06:d0:20:cb:50:4e:bc:a8:1c:44:37:
         75:0f:79:60:7f:09:4f:9d:fb:f1:3c:39:a4:92:fd:1b:57:9d:
         70:f5:90:a1:19:37:5f:2b:11:9b:0c:ee:34:64:46:5a:a1:42:
         75:c4:5c:a8:c4:43:85:bc:2d:04:26:1c:48:ba:d6:4a:b2:7f:
         9d:8e:34:ec:e8:3e:ce:f5:78:b8:a3:99:26:b2:b0:96:74:94:
         e4:a5:dd:82:f1:ec:2a:8a:89:58:d5:cf:53:9a:33:fd:ea:35:
         74:e7:d0:ec:28:61:3c:92:72:cf:30:4f:1f:cf:84:d0:e3:76:
         75:2a:2c:99:e4:86:52:a3:45:ed:fe:f2:de:e5:94:ec:48:c1:
         26:eb:12:23:01:76:7b:5b:cf:64:a9:24:1b:91:8c:3b:fd:29:
         a0:56:9e:48:fd:76:52:65:f0:46:ca:45:3e:f7:78:4d:86:c1:
         44:36:a2:8c:e7:e4:2e:7d:04:b4:33:cf:84:27:72:c9:18:b1:
         6a:4f:e9:5c:30:1f:e0:12:cd:03:3f:06:ee:82:18:65:46:1c:
         c7:96:27:d8:a6:68:c2:0e:ed:66:e2:f2:dd:84:9c:f0:67:97:
         da:12:8c:fd:f5:e9:93:7d:be:b2:de:ad:d3:32:81:b3:81:97:
         b6:c2:f7:b5:f0:3e:f2:cf:65:01:f5:02:94:ab:a4:26:ed:dc:
         22:4d:c7:d0:d3:6b:87:6b:7c:c2:b2:3a:99:59:4a:a1:6f:21:
         5a:f9:ba:d8:6c:82:1d:9a:c4:bf:75:e6:ea:d5:35:b5:b8:9c:
         8b:be:1b:76:be:95:98:6c:cc:6b:d3:e9:99:3a:40:9a:42:f9:
         28:05:95:c9:37:3c:dd:30:2d:f7:6d:52:18:dc:a4:b0:58:79:
         38:bd:9c:61:c6:68:2e:8c:96:aa:38:ff:d6:cd:5c:f0:6f:44:
         b7:03:d5:29:a3:14:29:cd:f5:a4:3e:71:76:54:72:c1:36:4b:
         bb:bd:bb:7a:87:33:15:ee:9d:40:8c:94:aa:02:92:7c:0b:96:
         89:af:ea:f7:3e:aa:e7:de:06:ee:6b:05:a7:57:9f:09:1f:4e:
         56:6a:84:52:47:2b:79:b9:d5:55:54:35:9f:a3:e8:ca:76:5a:
         22:ae:0c:ee:53:7c:ef:5f:20:04:44:ea:bf:aa:6a:c4:60:5b:
         70:33:1b:cb:e8:03:10:c8:88:08:b1:89:cd:85:7b:f9:6f:43:
         d4:53:d4:78:2d:39:7c:60
-----BEGIN CERTIFICATE-----
MIIFajCCA1KgAwIBAgIBAzANBgkqhkiG9w0BAQUFADCBhDELMAkGA1UEBhMCQkEx
CzAJBgNVBAgTAlJTMSEwHwYDVQQKExhFbGVrdHJvdGVobmlja2kgZmFrdWx0ZXQx
ETAPBgNVBAsUCENBX0VURkJMMRAwDgYDVQQDEwdyb290IGNhMSAwHgYJKoZIhvcN
AQkBFhFub3JlcGx5QGV0ZmJsLm5ldDAeFw0yMTAxMTAxNjA3NDNaFw0yMjAxMTAx
NjA3NDNaMIGsMQswCQYDVQQGEwJCQTELMAkGA1UECBMCUlMxITAfBgNVBAoTGEVs
ZWt0cm90ZWhuaWNraSBmYWt1bHRldDERMA8GA1UECxQIQ0FfRVRGQkwxDjAMBgNV
BAMTBWphbmtvMScwJQYJKoZIhvcNAQkBFhhqYW5rby5qYW5rb3ZpY0BldGZibC5u
ZXQxETAPBgNVBAQTCEphbmtvdmljMQ4wDAYDVQQqEwVKYW5rbzCCASIwDQYJKoZI
hvcNAQEBBQADggEPADCCAQoCggEBAMfnvqeQ8/1XLH9ePp7IPg+QYj8FmMpUwnd1
8e3TKcBgrLswnNf0H0GNB8GDbz5ZNItf6ZdqTklW1gy05zPwVurDEYiiCJm4k9tz
oNH+aCXGB/bX29mR9zMEDP4nIPposlpRN/+NOkQcrvZ9Tio8LZMmoiPhV8ImL1or
EFkFdwndeyjWCEC8TCdgP1T0z3hWrj+GmTUmIo4qyNeiv1Go+le5UsQmzxfK/8Fm
01EPOnpVSxxzSZRhM/+h0hW6H1/5b23lMt1zkJComd7FV3tgXAKzXsIBgT+7X4RH
89+tBtxfUz5NMZc02nkA8Xi5l71DyzRCMcmQrtMC6RbvanRI2S8CAwEAAaOBvDCB
uTAJBgNVHRMEAjAAMAsGA1UdDwQEAwIFoDAsBglghkgBhvhCAQ0EHxYdT3BlblNT
TCBHZW5lcmF0ZWQgQ2VydGlmaWNhdGUwHQYDVR0OBBYEFAgybWWaIojENABzDaAa
pkHeZKahMB8GA1UdIwQYMBaAFIF1FWG9FF1Nl+FsAw3lr+09yAAEMDEGA1UdHwQq
MCgwJqAkoCKGIGh0dHA6Ly8xOTIuMTY4LjIxLjg5L3Jvb3RjcmwucGVtMA0GCSqG
SIb3DQEBBQUAA4ICAQCa8YbuNhJDGY+Hghf8d7NztlWB/RdxG1Es/seuEWUuvzak
EQgEEC2hGaFbBtAgy1BOvKgcRDd1D3lgfwlPnfvxPDmkkv0bV51w9ZChGTdfKxGb
DO40ZEZaoUJ1xFyoxEOFvC0EJhxIutZKsn+djjTs6D7O9Xi4o5kmsrCWdJTkpd2C
8ewqiolY1c9TmjP96jV059DsKGE8knLPME8fz4TQ43Z1KiyZ5IZSo0Xt/vLe5ZTs
SMEm6xIjAXZ7W89kqSQbkYw7/SmgVp5I/XZSZfBGykU+93hNhsFENqKM5+QufQS0
M8+EJ3LJGLFqT+lcMB/gEs0DPwbughhlRhzHlifYpmjCDu1m4vLdhJzwZ5faEoz9
9emTfb6y3q3TMoGzgZe2wve18D7yz2UB9QKUq6Qm7dwiTcfQ02uHa3zCsjqZWUqh
byFa+brYbIIdmsS/debq1TW1uJyLvht2vpWYbMxr0+mZOkCaQvkoBZXJNzzdMC33
bVIY3KSwWHk4vZxhxmgujJaqOP/WzVzwb0S3A9UpoxQpzfWkPnF2VHLBNku7vbt6
hzMV7p1AjJSqApJ8C5aJr+r3Pqrn3gbuawWnV58JH05WaoRSRyt5udVVVDWfo+jK
dloirgzuU3zvXyAEROq/qmrEYFtwMxvL6AMQyIgIsYnNhXv5b0PUU9R4LTl8YA==
-----END CERTIFICATE-----
