Certificate:
    Data:
        Version: 3 (0x2)
        Serial Number: 5 (0x5)
        Signature Algorithm: sha1WithRSAEncryption
        Issuer: C=BA, ST=RS, O=Elektrotehnicki fakultet, OU=CA_ETFBL, CN=root ca/emailAddress=noreply@etfbl.net
        Validity
            Not Before: Jan 10 16:08:32 2021 GMT
            Not After : Jan 11 16:08:32 2021 GMT
        Subject: C=BA, ST=RS, O=Elektrotehnicki fakultet, OU=CA_ETFBL, CN=luka/emailAddress=luka.lukic@etfbl.net, SN=Lukic, GN=Luka
        Subject Public Key Info:
            Public Key Algorithm: rsaEncryption
                RSA Public-Key: (2048 bit)
                Modulus:
                    00:a7:e4:9d:f5:2b:a8:72:3f:5d:34:96:9f:11:28:
                    1f:f4:69:ad:a9:d0:9e:24:e6:59:e3:f1:e5:fc:dc:
                    e1:4f:82:6f:63:5c:1b:fe:1b:ac:23:07:13:d6:f3:
                    b5:32:21:99:8e:c6:b4:d3:d4:fc:95:f0:a6:be:b5:
                    43:af:c7:a1:36:77:20:cb:30:c6:20:76:db:49:4e:
                    14:66:a8:5b:b4:99:f1:70:fa:0a:c2:26:bd:86:00:
                    25:5c:77:04:d4:a5:d6:7e:79:16:69:35:76:9b:de:
                    c7:06:47:11:4f:79:01:2e:ab:59:c1:62:5d:af:75:
                    0e:54:34:5e:64:3c:eb:8b:48:80:30:41:d1:8c:ef:
                    ba:ba:8a:cc:b0:02:c2:b5:be:f6:27:6b:87:f3:ec:
                    7c:92:aa:d0:af:d2:cb:4b:3d:e2:2d:f4:09:aa:d6:
                    87:94:94:c0:ad:70:27:cb:15:a0:43:eb:6f:8e:8f:
                    f6:3b:64:ea:f3:e0:23:e7:17:4b:c1:e8:ed:48:27:
                    7c:e5:31:f2:65:a1:9c:9d:2b:6f:d3:f2:1c:97:d3:
                    de:5c:d0:f9:0d:ee:89:d5:4b:33:35:04:ca:79:92:
                    17:43:54:6f:ab:2b:14:f9:cc:5c:60:1e:f8:ef:d9:
                    e9:b9:e0:74:c7:03:0e:51:30:02:2f:6f:2f:bb:47:
                    f7:8b
                Exponent: 65537 (0x10001)
        X509v3 extensions:
            X509v3 Basic Constraints: 
                CA:FALSE
            X509v3 Key Usage: 
                Digital Signature, Key Encipherment
            Netscape Comment: 
                OpenSSL Generated Certificate
            X509v3 Subject Key Identifier: 
                41:94:45:AE:72:CA:24:05:55:A9:DB:1D:94:A1:08:A0:77:53:46:56
            X509v3 Authority Key Identifier: 
                keyid:81:75:15:61:BD:14:5D:4D:97:E1:6C:03:0D:E5:AF:ED:3D:C8:00:04

            X509v3 CRL Distribution Points: 

                Full Name:
                  URI:http://192.168.21.89/rootcrl.pem

    Signature Algorithm: sha1WithRSAEncryption
         60:20:0b:93:23:c5:2a:eb:91:9a:1e:50:5d:6c:38:59:51:86:
         0c:ed:9c:b5:0a:0e:55:7e:d6:00:a0:bb:ae:6f:4d:9c:d0:0a:
         ae:30:a8:65:2f:48:4e:ac:e1:eb:b4:64:7f:64:70:a7:d3:dd:
         75:32:a2:e0:ff:51:f4:73:40:e0:70:47:b1:4d:0f:52:f6:97:
         9c:5d:da:db:64:8b:67:59:2e:b1:4b:02:a7:ba:ab:08:c7:ee:
         fd:80:d2:92:f4:3f:fd:a2:5d:41:3f:af:59:6b:52:d7:41:3d:
         95:ae:68:3d:6d:8d:bd:c9:5c:cf:d4:4b:b9:ad:28:d4:2d:96:
         f9:19:c8:da:12:1d:c2:7b:a1:90:9d:ca:d0:61:80:c1:48:21:
         0d:06:9c:fa:aa:e3:07:43:77:e6:a0:44:41:3d:1c:9f:b3:89:
         7b:b2:c5:f8:58:60:25:f0:48:7b:79:82:73:1b:3c:e5:8c:f5:
         c6:1f:64:b2:0e:dd:72:b4:02:0d:1f:b0:02:da:e9:cf:a3:52:
         ce:ac:1a:bb:5b:f9:a3:ac:84:5b:3f:55:40:7e:0f:af:2e:ab:
         53:7d:19:13:43:34:88:2f:21:04:64:3b:8f:3f:b3:6a:b2:9d:
         ec:9d:20:51:49:6e:2f:0e:e8:0e:52:fc:4d:5b:70:09:54:38:
         f1:08:b7:fe:7c:c8:d3:41:f5:3e:95:3e:0c:ed:88:4e:2f:7f:
         c7:9c:cb:9d:b5:e2:4a:9e:63:e2:8a:06:5f:88:16:cf:f6:b0:
         4d:85:a8:d3:1a:ec:f5:23:07:4a:5f:b5:25:95:62:d2:58:1a:
         10:45:95:ca:2d:43:a7:6c:a0:13:28:55:42:19:ce:d9:cb:0a:
         0f:1a:b7:d6:56:d5:3c:3b:c7:d8:a4:e8:75:59:db:ed:92:ff:
         e5:25:74:bc:a0:de:d3:c0:2e:ed:74:95:aa:dc:88:ab:b0:b5:
         cb:da:70:ce:b8:3d:c6:ee:3e:1f:53:84:03:f8:39:c3:ac:af:
         a6:50:34:a2:57:e7:40:9e:d1:6c:7f:1e:5b:bc:22:e8:05:95:
         78:74:9a:c6:ea:bd:a5:28:c5:7d:fc:42:1f:38:ca:15:d6:df:
         c6:bb:af:3c:07:e5:7b:b5:09:30:94:9b:0c:ba:72:ed:96:36:
         fd:ff:e8:75:66:40:0e:83:ec:1c:59:58:9f:0c:0b:2e:1e:42:
         6e:32:39:75:4e:aa:2d:02:41:c0:39:59:f2:68:18:b1:5b:fb:
         c5:2b:5b:a4:31:e3:05:13:24:6f:97:64:bc:16:be:40:e7:70:
         9d:fc:c2:b8:87:25:b4:b9:02:87:30:b9:a8:d9:fe:51:a2:e9:
         eb:65:d0:08:2a:4b:82:5c
-----BEGIN CERTIFICATE-----
MIIFYTCCA0mgAwIBAgIBBTANBgkqhkiG9w0BAQUFADCBhDELMAkGA1UEBhMCQkEx
CzAJBgNVBAgTAlJTMSEwHwYDVQQKExhFbGVrdHJvdGVobmlja2kgZmFrdWx0ZXQx
ETAPBgNVBAsUCENBX0VURkJMMRAwDgYDVQQDEwdyb290IGNhMSAwHgYJKoZIhvcN
AQkBFhFub3JlcGx5QGV0ZmJsLm5ldDAeFw0yMTAxMTAxNjA4MzJaFw0yMTAxMTEx
NjA4MzJaMIGjMQswCQYDVQQGEwJCQTELMAkGA1UECBMCUlMxITAfBgNVBAoTGEVs
ZWt0cm90ZWhuaWNraSBmYWt1bHRldDERMA8GA1UECxQIQ0FfRVRGQkwxDTALBgNV
BAMTBGx1a2ExIzAhBgkqhkiG9w0BCQEWFGx1a2EubHVraWNAZXRmYmwubmV0MQ4w
DAYDVQQEEwVMdWtpYzENMAsGA1UEKhMETHVrYTCCASIwDQYJKoZIhvcNAQEBBQAD
ggEPADCCAQoCggEBAKfknfUrqHI/XTSWnxEoH/RpranQniTmWePx5fzc4U+Cb2Nc
G/4brCMHE9bztTIhmY7GtNPU/JXwpr61Q6/HoTZ3IMswxiB220lOFGaoW7SZ8XD6
CsImvYYAJVx3BNSl1n55Fmk1dpvexwZHEU95AS6rWcFiXa91DlQ0XmQ864tIgDBB
0YzvurqKzLACwrW+9idrh/PsfJKq0K/Sy0s94i30CarWh5SUwK1wJ8sVoEPrb46P
9jtk6vPgI+cXS8Ho7UgnfOUx8mWhnJ0rb9PyHJfT3lzQ+Q3uidVLMzUEynmSF0NU
b6srFPnMXGAe+O/Z6bngdMcDDlEwAi9vL7tH94sCAwEAAaOBvDCBuTAJBgNVHRME
AjAAMAsGA1UdDwQEAwIFoDAsBglghkgBhvhCAQ0EHxYdT3BlblNTTCBHZW5lcmF0
ZWQgQ2VydGlmaWNhdGUwHQYDVR0OBBYEFEGURa5yyiQFVanbHZShCKB3U0ZWMB8G
A1UdIwQYMBaAFIF1FWG9FF1Nl+FsAw3lr+09yAAEMDEGA1UdHwQqMCgwJqAkoCKG
IGh0dHA6Ly8xOTIuMTY4LjIxLjg5L3Jvb3RjcmwucGVtMA0GCSqGSIb3DQEBBQUA
A4ICAQBgIAuTI8Uq65GaHlBdbDhZUYYM7Zy1Cg5VftYAoLuub02c0AquMKhlL0hO
rOHrtGR/ZHCn0911MqLg/1H0c0DgcEexTQ9S9pecXdrbZItnWS6xSwKnuqsIx+79
gNKS9D/9ol1BP69Za1LXQT2Vrmg9bY29yVzP1Eu5rSjULZb5GcjaEh3Ce6GQncrQ
YYDBSCENBpz6quMHQ3fmoERBPRyfs4l7ssX4WGAl8Eh7eYJzGzzljPXGH2SyDt1y
tAINH7AC2unPo1LOrBq7W/mjrIRbP1VAfg+vLqtTfRkTQzSILyEEZDuPP7Nqsp3s
nSBRSW4vDugOUvxNW3AJVDjxCLf+fMjTQfU+lT4M7YhOL3/HnMudteJKnmPiigZf
iBbP9rBNhajTGuz1IwdKX7UllWLSWBoQRZXKLUOnbKATKFVCGc7ZywoPGrfWVtU8
O8fYpOh1Wdvtkv/lJXS8oN7TwC7tdJWq3IirsLXL2nDOuD3G7j4fU4QD+DnDrK+m
UDSiV+dAntFsfx5bvCLoBZV4dJrG6r2lKMV9/EIfOMoV1t/Gu688B+V7tQkwlJsM
unLtljb9/+h1ZkAOg+wcWVifDAsuHkJuMjl1TqotAkHAOVnyaBixW/vFK1ukMeMF
EyRvl2S8Fr5A53Cd/MK4hyW0uQKHMLmo2f5RounrZdAIKkuCXA==
-----END CERTIFICATE-----
